(lp0
S'Are you a magician? Because whenever I look at you, everyone else disappears'
p1
aS"I'm not a photographer, but I can picture me and you together"
p2
aS'Are you an interior decorator? Because when I saw you, the entire room became beautiful'
p3
aS"Are you religious? Because you're the answer to all my prayers"
p4
aS'Are you a camera? Because every time I look at you, I smile'
p5
aS'Did you sit in a pile of sugar? Cause you have a pretty sweet ass'
p6
aS'Do you have a Band-Aid? Because I just scraped my knee falling for you'
p7
aS'Do you know what my shirt is made of? Boyfriend material'
p8
aS"If I were a stop light, I'd turn red everytime you passed by, just so I could stare at you a bit longer"
p9
aS'I wanna live in your socks so I can be with you every step of the way'
p10
aS"If you were a vegetable you'd be a cute-cumber"
p11
aS'I seem to have lost my phone number. Can I have yours'
p12
aS"Is your daddy a Baker? Because you've got some nice buns"
p13
aS'There are people who say Disneyland is the happiest place on earth. Apparently, none of them have ever been in your arms'
p14
aS'Did you invent the airplane? Cause you seem Wright for me'
p15
aS"If God made anything more beautiful than you, I'm sure he'd keep it for himself"
p16
aS"Do you have a map? I'm getting lost in your eyes"
p17
aS"I don't have a library card, but do you mind if I check you out"
p18
aS'Are you an orphanage? Cause I wanna give you kids'
p19
aS'I was feeling a little off today, but you definitely turned me on'
p20
aS'Are you my Appendix? Because I have a funny feeling in my stomach that makes me feel like I should take you out'
p21
aS"I'm sorry, I don't think we've met. I wouldn't forget a pretty face like that"
p22
aS"My buddies bet me that I wouldn't be able to start a conversation with the most beautiful girl in the bar. Wanna buy some drinks with their money"
p23
aS'Are you a fruit, because Honeydew you know how fine you look right now'
p24
aS"Does your left eye hurt? Because you've been looking right all day"
p25
aS'I will stop loving you when an apple grows from a mango tree on the 30th of February'
p26
aS"Do you live in a corn field, cause I'm stalking you"
p27
aS'Sorry, but you owe me a drink. [Why?] Because when I looked at you, I dropped mine'
p28
aS"Are you a parking ticket? 'Cause you've got fine written all over you"
p29
aS'You look cold. Want to use me as a blanket'
p30
aS'Can I have directions? [To where?] To your heart'
p31
aS"I'm not drunk, I'm just intoxicated by YOU"
p32
aS"I was so enchanted by your beauty that I ran into that wall over there. So I'm going to need your name and number for insurance purposes"
p33
aS'Is there an airport nearby or is that just my heart taking off'
p34
aS"I'm not staring at your boobs. I'm staring at your heart"
p35
aS"You're the only girl I love now... but in ten years, I'll love another girl. She'll call you 'Mommy."
p36
aS'Can I take your picture to prove to all my friends that angels do exist'
p37
aS'I tried my best to not feel anything for you. Guess what? I failed'
p38
aS"Your body is 65% water and I'm thirsty"
p39
aS"Hey, don't frown. You never know who could be falling in love with your smile"
p40
aS"My doctor says I'm lacking Vitamin U"
p41
aS"Have you been to the doctor lately? Cause I think you're lacking some Vitamin Me"
p42
aS"Forget about Spiderman, Superman, and Batman. I'll be your man"
p43
aS'Can I follow you home? Cause my parents always told me to follow my dreams'
p44
aS'Because of you, I laugh a little harder, cry a little less, and smile a lot more'
p45
aS'For a moment I thought I had died and gone to heaven. Now I see that I am very much alive, and heaven has been brought to me'
p46
aS"You look so familiar\xe2\x80\xa6 didn't we take a class together? I could've sworn we had chemistry"
p47
aS"Fascinating. I've been looking at your eyes all night long, 'cause I've never seen such dark eyes with so much light in them"
p48
aS"Was your dad a boxer? Cause you're a knockout"
p49
aS"You're so beautiful that you made me forget my pickup line"
p50
aS"You shouldn't wear makeup. It's messing with perfection"
p51
aS"If I had a star for every time you brightened my day, I'd have a galaxy in my hand"
p52
aS"Damn, if being sexy was a crime, you'd be guilty as charged"
p53
aS'I was wondering if you had an extra heart mine seems to have been stole'
p54
aS'I thought happiness started with an H. Why does mine start with U'
p55
aS"If I were a cat I'd spend all 9 lives with you"
p56
aS'Do you work at Starbucks? Because I like you a latte'
p57
aS'Are you a banana? Because I find you a-peelin'
p58
aS'Did you read Dr. Seuss as a kid? Because green eggs and... damn'
p59
aS"Is your dad a drug dealer? Cause you're so Dope"
p60
aS"Smoking is hazardous to your health... and baby, you're killing me"
p61
aS"There isn't a word in the dictionary for how good you look"
p62
aS'Me without you is like a nerd without braces, A shoe without laces, aSentenceWithoutSpace'
p63
aS'Babe, your beauty makes the morning sun look like the dull glimmer of the moon'
p64
aS"Most people like to watch the Olympics, because they only happen once every 4 years, but I'd rather talk to you cause the chance of meeting someone so special only happens once in a lifetime"
p65
aS'If I\xe2\x80\x99m vinegar, then you must be baking soda. Because you make me feel all bubbly inside'
p66
aS'You must be the cure for Alzheimer\xe2\x80\x99s, because you\xe2\x80\x99re unforgettable'
p67
aS'I\xe2\x80\x99m in the mood for pizza... a pizza you, that is'
p68
aS'I was so content with my life and one day I asked God, what could be better than this? And then I met you'
p69
aS"Are you from Tennessee? Because you're the only ten I see"
p70
aS"I must be a snowflake, because I've fallen for you"
p71
aS"There is something wrong with my cell phone. It doesn't have your number in it"
p72
aS"Baby, if you were words on a page, you'd be what they call FINE PRINT"
p73
aS"Do you work at Dick's? Cause you're sporting the goods"
p74
aS'You must be a hell of a thief because you stole my heart from across the room'
p75
aS'Do you have a twin sister? Then you must be the most beautiful girl in the world'
p76
aS"You know I'd like to invite you over, but I'm afraid you're so hot that you'll skyrocket my air-conditioning bill"
p77
aS'Excuse me, but I think I dropped something. MY JAW'
p78
aS"If you were a booger I'd pick you first"
p79
aS'Do you know what I did last night? I looked up at the stars, and matched each one with a reason why I love you'
p80
aS"Excuse me, I think you have something in your eye. Oh wait, it's just a sparkle"
p81
aS'If I were to ask you out on a date, would your answer be the same as the answer to this question'
p82
aS'If this bar is a meat market, you must be the prime rib'
p83
aS"Are you lost ma'am? Because heaven is a long way from here"
p84
aS"I'm fighting the urge to make you the happiest woman on earth tonight"
p85
aS"Are you a campfire? Cause you are hot and I want s'more"
p86
aS"You're kinda, sorta, basically, pretty much always on my mind"
p87
aS"Put down that cupake... you're sweet enough already"
p88
aS"You wanna know what's beautiful? Read the first word again"
p89
aS"My love for you is like diarrhea, I just can't hold it in"
p90
aS"Hello, I'm a thief, and I'm here to steal your heart"
p91
aS"Hey baby you're so fine you make me stutter, wha-wha-what's your name"
p92
aS"I bet you $20 you're gonna turn me down"
p93
aS"I'm not actually this tall. I'm sitting on my wallet"
p94
aS'When I first saw you I looked for a signature, because every masterpiece has one'
p95
aS"I like Legos, you like Legos, why don't we build a relationship"
p96
aS'Baby I might not be Sriracha sauce but, I sure will spice up your life'
p97
aS'Are you Jewish? Cause you ISRAELI HOT'
p98
aS"You may be asked to leave soon, you're making all the other women look bad"
p99
aS'Do you have the time? [Tells you the time] No, the time to write down my number'
p100
aS"Would you grab my arm so I can tell my friends I've been touched by an angel"
p101
aS'Hey... Didn\'t I see your name in the dictionary under "Shazaam!"'
p102
aS"Are you African? Because you're a frican babe"
p103
aS"There's only one thing I want to change about you, and that's your last name"
p104
aS'If a thousand painters worked for a thousand years, they could not create a work of art as beautiful as you'
p105
aS'Rejection can lead to emotional stress for both parties involved and emotional stress can lead to physical complications such as headaches, ulcers, cancerous tumors, and even death! So for my health and yours, JUST SAY YES'
p106
aS'Of all the beautiful curves on your body, your smile is my favorite'
p107
aS'Did you have lucky charms for breakfast? Because you look magically delicious'
p108
aS'No wonder the sky is grey today, all the blue is in your eyes'
p109
aS'Can I borrow your cell phone? I need to call animal control, because I just saw a fox'
p110
aS"I'm no organ donor but I'd be happy to give you my heart"
p111
aS"If I had a penny for every time I thought of you, I'd have exactly one cent, because you never leave my mind"
p112
aS"Hershey's makes millions of kisses a day.. .all I'm asking for is one from you"
p113
aS'Life without you would be like a broken pencil... pointless'
p114
aS'I may not be a genie, but I can make your dreams come true'
p115
aS"Kiss me if I'm wrong, but dinosaurs still exist, right"
p116
aS"If I received a nickel for everytime I saw someone as beautiful as you, I'd have five cents"
p117
aS'If nothing lasts forever, will you be my nothing'
p118
aS'Hello are you married? [Yes] Well I didn\'t hear you say "happily"'
p119
aS'You are like a candy bar: half sweet and half nuts'
p120
aS'Excuse me, but does this smell like chloroform to you'
p121
aS"Hello how are you? [Fine] Hey, I didn't ask you how you looked"
p122
aS'Did you clean your pants with Windex? I can practically see myself in them'
p123
aS'How was heaven when you left it'
p124
aS'Did you fart, cause you blew me away'
p125
aS"You know you're in love when you can't fall asleep because reality is finally better than your dreams"
p126
aS"Hey... somebody farted. Let's get out of here"
p127
aS"I didn't know that angels could fly so low"
p128
aS"There must be something wrong with my eyes, I can't take them off you"
p129
aS'You are so fine, I wish I could plant you and grow a whole field of you'
p130
aS'Is your last name Gillette? Because you are the best a man can get'
p131
aS'Is your name "swiffer"? \'Cause you just swept me off my feet'
p132
aS'Excuse me, but you dropped something back there" (What?) "This conversation, lets pick it up later tonight'
p133
aS'Are you going to kiss me or do I have to lie to my diary'
p134
aS'Are you cold? You look like you could use some hot chocolate... Well, here I am'
p135
aS'If stars would fall everytime I would think of you, the sky would soon be empty'
p136
aS"You know, Dr. Phil says I'm afraid of commitment...Want to help prove him wrong"
p137
aS'Your lips look so lonely.... Would they like to meet mine'
p138
aS"Baby, you're so sweet, you put Hershey's outta business"
p139
aS'Can I buy you a drink or do you just want the money'
p140
aS'Did the sun come out or did you just smile at me'
p141
aS"So there you are! I've been looking all over for YOU, the woman of my dreams"
p142
aS'Do you believe in love at first sight, or should I walk by again'
p143
aS"Inheriting eighty million bucks doesn't mean much when you have a weak heart"
p144
aS"You see my friend over there? [Point to friend] He wants to know if YOU think I'M cute"
p145
aS"The only thing your eyes haven't told me is your name"
p146
aS'Excuse me, I just noticed you noticing me and I just wanted to give you notice that I noticed you too'
p147
aS"(As she is leaving) Hey aren't you forgetting something? (What?) Me"
p148
aS"Somebody better call God, cuz heaven's missing an angel"
p149
aS'Can I borrow a quarter? ["What for?"] I want to call my mom and tell her I just met the man/woman of my dreams'
p150
aS"I'm Mr. Right, someone said you were looking for me"
p151
aS"Can I borrow a kiss? I promise I'll give it back"
p152
aS"If I were a transplant surgeon, I'd give you my heart"
p153
aS"Are you Willy Wonka's daughter, 'cuz you look sweet and delicious"
p154
aS"If you were a transformer, you'd be a HOT-obot, and your name would be Optimus Fine"
p155
aS"Do you remember me? [No.] Oh that's right, we've only met in my dreams"
p156
aS'Did it hurt? (Did what hurt?) When you fell out of heaven'
p157
aS"I'm sorry, were you talking to me? [No] Well then, please start"
p158
aS'I know milk does a body good, but baby, how much have you been drinking'
p159
aS'I play the field, and it looks like I just hit a home run with you'
p160
aS"I'm new in town. Could you give me directions to your apartment"
p161
aS"If I could rearrange the alphabet, I would put 'U' and 'I' together"
p162
aS'If you were a tear in my eye I would not cry for fear of losing you'
p163
aS'If your heart was a prison, I would like to be sentenced for life'
p164
aS'My lenses turn dark in the sunshine of your love'
p165
aS"Was you father an alien? Because there's nothing else like you on Earth"
p166
aS'What time do you have to be back in heaven'
p167
aS"Baby, I'm no Fred Flintstone, but I can make your Bedrock"
p168
aS"Wouldn't we look cute on a wedding cake together"
p169
aS"You'd better direct that beauty somewhere else, you'll set the carpet on fire"
p170
aS"Your legs must be tired because you've been running through my mind all night"
p171
aS'[Point at her butt] Pardon me, is this seat taken'
p172
aS"Was your father a thief? 'Cause someone stole the stars from the sky and put them in your eyes"
p173
aS'Do you have a pencil? Cause I want to erase your past and write our future'
p174
aS'I love you like a pig loves not being bacon'
p175
aS'Are your parents bakers? Cause they sure made you a cutie pie'
p176
aS'Did you go to bed early last night? From the looks of it, you got your beauty sleep'
p177
aS"What's on the menu? Me-n-"
p178
aS"You're like pizza. Even when you are bad, you're goo"
p179
aS"I'd say God Bless you, but it looks like he already did"
p180
aS'I must be in a museum, because you truly are a work of art'
p181
aS"My friend thinks you're kinda cute, but I don't... I think you're absolutely gorgeous"
p182
aS"Let's commit the perfect crime: I'll steal your heart, and you'll steal mine"
p183
aS'You spend so much time in my mind, I should charge you rent'
p184
aS"If kisses were snowflakes, I'd send you a blizzar"
p185
aS"Are you my phone charger? Because without you, I'd die"
p186
aS"How come you're not on top of a Christmas tree? I thought that's where angels belonged"
p187
aS'Are you a hipster, because you make my hips stir'
p188
aS'Are you a cat? Cause you are purrrfec'
p189
aS'Does your father sell diamonds? Because you are FLAWLESS'
p190
aS"If you were a tropical fruit, you'd be a Fine-apple"
p191
aS'I wish I was cross eyed, so I could see you twice'
p192
aS"Are you on Nickelodeon? Cause you're a-Dora-ble"
p193
aS"I don't know if you're beautiful, I haven't gotten past your eyes yet"
p194
aS"You don't need keys to drive me crazy"
p195
aS"My name isn't Elmo, but you can tickle me any time you want to"
p196
aS'Can you take me to the doctor? Because I just broke my leg falling for you'
p197
aS'People call me John, but you can call me tonight'
p198
aS'You must be a ninja, because you snuck into my hear'
p199
aS'I need a dollar, but I only have 90 cents... do you want to be my dime'
p200
aS'[Look at her shirt label.] When they say, "What are you doing?" You respond: "Yep! Made in heaven!'
p201
aS'Are you a magician??? Because Abraca-DAYUM'
p202
aS"You're so hot, that if you ate a piece of bread, you'd poop out toast"
p203
aS'Be unique and different, say yes'
p204
aS"Your eyes are blue, like the ocean. And baby, I'm lost at sea"
p205
aS'You know how they say skin is the largest organ on the human body? Not in my case'
p206
aS'My lips are like skittles. Wanna taste the rainbow'
p207
aS'They say dating is a numbers game... so can I get your number'
p208
aS"My name isn't Elmo, but you can tickle me any time you want to"
p209
aS"You be the Dairy Queen and I'll be your Burger King: You treat me right, and I'll do it your way"
p210
aS'(Ask a person for the time) 9:15? So today is May 1, 2008, at 9:15 PM, thanks I just wanted to be able to remember the exact moment that I met the woman of my dreams'
p211
aS"Pinch me. [Why?] You're so fine I must be dreaming"
p212
aS'If I had to choose between breathing or loving you, I would say "I love you" with my last breath'
p213
aS'Ouch! My tooth hurts! [Why?] Because you are soooo sweet'
p214
aS"I'm not trying to impress you or anything, but... I'm Batman"
p215
aS"You must be from Pearl Harbor, because baby, you're the bomb"
p216
aS'You must be Jamaican, because Jamaican me crazy'
p217
aS"Do you know karate? Because your body is really kickin'"
p218
aS'When God made you, he was showing off'
p219
aS'Are you a Snickers bar? Cause you satisfy me'
p220
aS'Is your dad a terrorist? Because you are the bomb'
p221
aS'Is your last name Campbell? Cause you\'re "mmmm... good!'
p222
aS"You're like a dictionary, you add meaning to my life"
p223
aS'Baby, you are so fine I could put you on a plate and sop you up with a biscuit'
p224
aS"Is there a rainbow today? I just found the treasure I've been searching for"
p225
aS'You remind me of a magnet, because you sure are attracting me over here'
p226
aS'Hey, is it just me, or are we destined to be married'
p227
aS'Hello. Are you taking any applications for a boy/girlfriend'
p228
aS'I have an "owie" on my lip. Will you kiss it and make it better'
p229
aS"Let's make like a fabric softener and 'Snuggl"
p230
aS"I didn't see any stars in the sky tonight, the most heavenly body was standing right next to me"
p231
aS'Hi, my name is Doug. That\'s "god" spelled backwards with a little bit of you wrapped up in it'
p232
aS"If I could reach out and hold a star for everytime you've made me smile, I'd hold the sky in the palm of my hand"
p233
aS'Well, here I am. What were your other two wishes'
p234
aS"(Put your fingers on the other's nipples) Hey, here's (name), comin' at you with the weather. Can I be your warm front"
p235
aS"How much does a polar bear weigh? [How much?] Enough to break the ice... Hi, I'm (insert name here)"
p236
aS'Well, I AM telepathic, and I can tell that you love me. Right? [NO!] Darn, I always get "love" and "lust" mixed up'
p237
aS'Should I smile because we are friends, or cry because I know that is what we will ever be'
p238
aS'When I look into your eyes, it is like a gateway into the world of which I want to be a part'
p239
aS'Hey baby. You got a jersey? [A jersey?...Why?] Because I need your name and number'
p240
aS"Hello, I'm doing a survey of what people think are the cheesiest pickup lines. So, do you pick 'Do you come here often?', 'What's your sign?', or 'Hello, I'm doing a survey of what people think are the cheesiest pickup lines.'"
p241
aS'(hold out hand) Would you hold this for me while I go for a walk'
p242
aS'This time next year let\xe2\x80\x99s be laughing together'
p243
aS'Is your last name Whitman, because I want to sample you'
p244
aS'Let me tie your shoes, cause I dont want you falling for anyone else'
p245
aS"On a scale of 1 to 10, you're a 9. I'm the 1 you need"
p246
aS'Most guys need 3 meals a day to keep going... I just need eye contact from you'
p247
aS'Hey baby, I must be a light switch, cuz every time I see you, you turn me on'
p248
aS'Are you a beaver? Cause daaaaam'
p249
aS'I hope your day has been as beautiful as you are'
p250
aS'Do I know you? Cause you look just like my next girlfriend'
p251
aS"Is your father Little Caesar? Cause you look Hot 'n Ready"
p252
aS"I could use some spare change and you're a dime"
p253
aS"I'm no mathematician, but I'm pretty good with numbers. Tell you what, Give me yours and watch what I can do with it"
p254
aS"Didn't I see you on the cover of Vogue"
p255
aS"Excuse me, I don't want you to think I'm ridiculous or anything, but you are the most beautiful woman I have ever seen. I just felt like I had to tell you"
p256
aS'Have you always been this cute, or did you have to work at it'
p257
aS"Hey, don't I know you? Yeah, you're the girl with the beautiful smile"
p258
aS'Was your father a mechanic? Then how did you get such a finely tuned body'
p259
aS'I have had a really bad day and it always makes me feel better to see a pretty girl smile. So, would you smile for me'
p260
aS'I hope you know CPR, cuz you take my breath away'
p261
aS'I just had to come talk with you. Sweetness is my weakness'
p262
aS"I think I can die happy now, cause I've just seen a piece of heaven"
p263
aS'Apart from being sexy, what do you do for a living'
p264
aS'If I told you that you had a great body, would you hold it against me'
p265
aS'I sneezed because God blessed me with you'
p266
aS'Is it hot in here or is it just you'
p267
aS"Nice to meet you, I'm (your name) and you are...gorgeous"
p268
aS'So, what do you do for a living besides always making all the men excited and warm all over'
p269
aS'I may not be a genie, but I can make all your wishes come true'
p270
aS'Was your dad king for a day? He must have been to make a princess like you'
p271
aS"Were you arrested earlier? It's gotta be illegal to look that good"
p272
aS"Were your parents Greek Gods, 'cause it takes two gods to make a goddess"
p273
aS'What does it feel like to be the most beautiful girl in this room'
p274
aS"What's that on your face? Oh, must just be beauty. Here, let me get it off. Hey, it's not coming off"
p275
aS'Wow! Are those real'
p276
aS'I blame you for global warming... your hotness is too much for the planet to handle'
p277
aS'You are the reason men fall in love'
p278
aS'Are you Australian? Because you meet all of my koala-fications'
p279
aS'You know the more I drink, the prettier you get'
p280
aS'You know, I would die happy if I saw you naked just once'
p281
aS"If you were ground coffee, you'd be Espresso cause you're so fine"
p282
aS"You better call Life Alert, 'cause I've fallen for you and I can't get up"
p283
aS"You're single. I'm single. Coincidence? I think not"
p284
aS"You know, you might be asked to leave soon. You're making the other women look really bad"
p285
aS'You look like my third wife. [how many time have you been married?] Twice'
p286
aS'You make me melt like hot fudge on a sundae'
p287
aS"You should be someone's wife"
p288
aS'Were you in Boy Scouts? Because you sure have tied my heart in a knot'
p289
aS'Are you as beautiful on the inside as you are on the outside'
p290
aS'I want to be your tear drop, so I could be born in your eyes, live on your cheeks, and die on your lips'
p291
aS'Babe! you look so fine I could drink your bath water'
p292
aS"You're so hot you would make the devil sweat"
p293
aS'If I had a rose for every time I thought of you, I would be walking through my garden forever'
p294
aS"Hi, I'm writing a term paper on the finer things in life, and I was wondering if I could interview you"
p295
aS"Girl, if I were a fly, I'd be all over you, because you're the shit"
p296
aS'There must be a lightswitch on my forehead because everytime I see you, you turn me on'
p297
aS'Hey, how did you do that? (What?) Look so good'
p298
aS'Damn girl, you have more curves than a race track'
p299
aS'If you stood in front of a mirror and help up 11 roses, you would see 12 of the most beautiful things in the world'
p300
aS'Do you have a sunburn, or are you always this hot'
p301
aS'You are so beautiful that I would marry your brother just to get into your family'
p302
aS'You look like a cool glass of refreshing water, and I am the thirstiest man in the world'
p303
aS"Are you a tamale? 'Cause you're hot"
p304
aS'You are so beautiful that you give the sun a reason to shine'
p305
aS'Do you want to see a picture of a beautiful person? (hold up a mirror'
p306
aS"Do you bleach your teeth? 'Cause your smile lights up the entire room like a candle in the dark. Let's go prove it"
p307
aS'Your ass is so nice that it is a shame that you have to sit on it'
p308
aS'Someone should call the police, because you just stole my heart'
p309
aS'Stop, drop, and roll, baby. You are on fire'
p310
aS"Baby, you're so hot, you make the equator look like the north pole"
p311
aS'Come live in my heart, and pay no rent'
p312
aS"You're hotter than Papa Bear's porridge"
p313
aS"I hope there's a fire truck nearby, cause you're smokin'"
p314
aS"If it weren't for that DAMNED sun, you'd be the hottest thing ever created"
p315
aS'How is your fever? [What fever?] Oh... you just look hot to me'
p316
aS'I just got dumped, and I think that you could make me feel better'
p317
aS'(Walk up to someone and bite them anywhere) Sorry, taking a bite out of crime. [WHAT?] Well it has to be illegal to look that good'
p318
aS"You are a 9 - you'd be a perfect 10 if you were with me"
p319
aS"Excuse me, I'd like to have kids someday, and I wanted to know how your parents created such a beautiful creature"
p320
aS"You're so hot, I bet you could light a candle at 10 paces"
p321
aS'I can\'t believe I\'ve been hear the entire evening with all these beautiful people and the moment I find \'The One\', all I have time to say is "good bye"'
p322
aS"Hey baby, you've got something on your butt - my eyes"
p323
aS"This isn't a beer belly, It's a fuel tank for a love machine"
p324
aS"I don't know you, but I think I love you already"
p325
aS"Here's the key to my house, my car... and my heart"
p326
aS"if we shared a garden, I'd put my tulips and your tulips together. (tulips = two lips"
p327
aS"Is your name Summer? 'Cause you are as hot as hell"
p328
aS'If I had to choose between one night with you or winning the lottery...I would chose winning the lottery...but it would be close...real close..'
p329
aS"Do you have any sunscreen? 'Cause you are burning me up"
p330
aS'See these keys? I wish I had the one to your heart'
p331
aS'Stare at girl . ("What\'re you staring at?"'
p332
aS'You, Before I Wake Up From this Dream'
p333
aS"You're hotter than donut grease"
p334
aS'Your eyes are as blue as window cleaner'
p335
aS'Was that an earthquake or did you just rock my world'
p336
aS"If you were a burger at McDonalds, you'd be McGorgeous"
p337
aS"Are your parents retarded, 'cause you sure are special"
p338
aS"If you could put a price tag on beauty you'd be worth more than Fort Knox"
p339
aS"I must be dancing with the devil, because you're hot as hell"
p340
aS"Are you the moon? Because even when it's dark, you still seem to shine"
p341
aS'I never need to see the sun again because your eyes light up my world'
p342
aS'If you were a steak you would be well done'
p343
aS"It's dark in here. Wait! It's because all of the light is shining on you"
p344
aS'Your hand looks heavy. Let me hold it for you'
p345
aS'Do you have any raisins? [No] How about a date'
p346
aS'Are you a kidnapper? Because you just abducted my heart'
p347
aS"Is your name Katrina? [No, why?] 'Cuz baby, you rock me like a hurricane"
p348
aS'Can you pull this heart-shaped arrow out of my butt? A damn little kid with wings shot me'
p349
aS"Is your body from McDonald's? Cause I'm lovin' it"
p350
aS'Are you a microwave oven? Cause you melt my heart'
p351
aS'Did you get your license suspended for driving so many guys crazy'
p352
aS'Are you a girl scout, cause you tie my heart in knots'
p353
aS"You're so hot, I could bake cookies on you"
p354
aS'You look beautiful today, just like every other day'
p355
aS"Let's play Winnie the Pooh and get my nose stuck in your honey jar"
p356
aS"When I'm older, I'll look back at all of my crowning memories, and I'll think of the day my children were born, the day I got married, and the day that I met you"
p357
aS"If beauty were time, you'd be eternity"
p358
aS"Is your car battery dead? Because I'd like to jump you"
p359
aS"I'm lost. Can you tell me which road leads to your heart"
p360
aS"Even if there wasn't gravity on earth, I'd still fall for you"
p361
aS"It's a good thing I wore gloves today. Otherwise you'd be too hot to handle"
p362
aS'Hello. Cupid called. He says to tell you that he needs my heart back'
p363
aS"Is your name David? Because I'm pretty sure you could have only be crafted at the hands of Michelangelo"
p364
aS'You look like a hard worker. I have an opening you can fill'
p365
aS"I know why they call it a beaver. Because I'm dying for some wood"
p366
aS"What's your name? Because I'll be screaming it all night long"
p367
aS"I'm wearing Revlon Colorstay Lipstick, want to help me test the claim that it won't kiss off"
p368
aS"I'm having a sale in my bedroom. My clothes are 100% off"
p369
aS'Do you work at Subway? Because I could really go for a footlong'
p370
aS'If I told you I worked at Home Depot, would you let me handle your tool'
p371
aS"Are you a candle? Because I'm going to blow you"
p372
aS"Want to give me an australian kiss? It's like french kissing, but you're going down under"
p373
aS'Are you a burger? Because you can be the meat between my buns'
p374
aS"I'm French Horny for your Tromboner"
p375
aS"Wanna make a seafood palette? You bring your mussels back to my place and I'll show you my clam"
p376
aS'Do you know how to drive stick? Because I sure as hell do'
p377
aS'Do these feel real to you'
p378
aS'Are you a taxidermist? Ok, wanna try stuffing my kitty anyway'
p379
aS'Do you eat tacos? Because my Taco Bell is open'
p380
aS"I've got the buns, do you have the hot dog"
p381
aS"Do you know what'd look good on you? Me"
p382
aS'Is my vagina crying, or are you just sexy'
p383
aS'In my nursing class we just learned how to bathe people... can I practice on you'
p384
aS'I want your flesh rocket in my hot pocket'
p385
aS'If I told you I worked for UPS, would you let me handle your package'
p386
aS"Happy Alentine's Day\xe2\x80\xa6 I'll give you the 'V' later"
p387
aS"I'm not wearing any socks. And I have the panties to match"
p388
aS'My body has 206 Bones. Want to give me another one'
p389
aS"I don't feel so good. I think I need a shot of penis-illin"
p390
aS'You know what would make your face look better? If I sat on it'
p391
aS'Hi. I have a vagina'
p392
aS"Do you live on a chicken farm? 'Cause you sure know how to raise a cock"
p393
aS'Are you a drill sergeant? Because you have my privates standing at attention'
p394
aS"You're just like my little toe, because I'm going to bang you on every piece of furniture in my home"
p395
aS"Do you mix concrete for a living? Because you're making me hard"
p396
aS"If you're feeling down, I can feel you up"
p397
aS'My dick just died. Would you mind if I buried it in your ass'
p398
aS"Are your legs made of Nutella? Because I'd love to spread them"
p399
aS'There will only be 7 planets left after I destroy Uranus'
p400
aS"I'm no weather man, but you can expect more than a few inches tonight"
p401
aS'Do you work at Subway? Because you just gave me a footlong'
p402
aS"I may not go down in history, but I'll go down on you"
p403
aS"That shirt's very becoming on you. If I were on you, I'd be coming too"
p404
aS'Do you work for UPS? I could have sworn I saw you checking out my package'
p405
aS"I hope you like dragons, because I'll be dragon my balls across your face tonight"
p406
aS'I think it\'s time I tell you what people are saying behind your back... "Nice ass!'
p407
aS'I may not be a windshield repairman, but I can still fill your crack in'
p408
aS"Do you know the difference between my dick and a chicken wing? No? Well, let's go on a picnic and find out"
p409
aS"Forget that! Playing doctor is for kids! Let's play gynecologist"
p410
aS"Are you a termite? Cause you're about to have a mouth full of wood"
p411
aS'Your face reminds me of a wrench, every time I think of it my nuts tighten up'
p412
aS'Excuse me, but would you like an orally stimulated orgasm'
p413
aS'Do you run track? Cause I heard you Relay want this dick'
p414
aS'My friend over there really wants your number so he knows where to get a hold of me in the morning'
p415
aS"Are you from the ghetto? Cause I'm about to ghetto hold of dat ass"
p416
aS'You know what I like in a girl? My dick'
p417
aS'Are you a doctor? cause you just cured my erectile dysfunction'
p418
aS'Your legs are like an Oreo Cookie - I wanna split them and eat all the good stuff in the middle'
p419
aS'Have you ever kissed a rabbit between the ears? [Pull your pockets inside out] Would you like to'
p420
aS'I lost my virginity. Can I have yours'
p421
aS'If you thought Disneyland was the happiest place on earth, you haven\xe2\x80\x99t been in my pants yet'
p422
aS"Hey babe, how about a pizza and a f**k? [No] What's wrong, don't you like pizza"
p423
aS"Hey, you wanna do a 68? You go down on me, and I'll owe you one"
p424
aS'Someone vacuum my lap, I think this girl needs a clean place to sit'
p425
aS"If I could rearrange the alphabet, I'd put 'U' between 'F' and 'CK' F**k me if I'm wrong, but isn't your name Laura"
p426
aS"Hey Baby! I'd like to use your thighs as earmuffs"
p427
aS'You might not be the best looking girl here, but beauty is only a light switch away'
p428
aS"Are you from Iraq? 'Cause I like the way you Baghdad ass up"
p429
aS'Your breasts remind me of Mount Rushmore - my face should be among them'
p430
aS'Hey baby, I think you just made my two by four into a four by eight'
p431
aS"Is that a keg in your pants? Because I'd love to tap that ass"
p432
aS'Hey cutie, wanna go halves on a baby'
p433
aS"You can call me cake, cause I'll go straight to your ass"
p434
aS'Are you hungry? Cause omelette you suck this dick'
p435
aS"Do you like pudding? Cause I'll be pudding this dick in your ass"
p436
aS'Can I read your t-shirt in braille'
p437
aS"Do you have an inhaler? Because you've got ass ma"
p438
aS'Do you smoke pot? Because weed be cute togethe'
p439
aS"Do you have pet insurance? Because your pussy's getting smashed tonight"
p440
aS"Are you my homework? Cause I'm not doing you but I definitely should be"
p441
aS'Roses are red, violets are fine. If I be the 6, will you be the 9'
p442
aS"Do you go to church often? Cause you're gonna be on your knees tonight"
p443
aS"Do you know your ABC's? Cause I wanna give you the 4th letter of the alphabet"
p444
aS"Are you an archaeologist? Because I've got a bone for you to examine"
p445
aS"I'll give you a nickel if you tickle my pickle"
p446
aS"You are so selfish! You're going to have that body the rest of your life and I just want it for one night"
p447
aS'Just remember: To you, I am a virgin'
p448
aS"What's the speed limit of sex? [what?] 68. Because at 69 YOU have to turn around"
p449
aS"I'm an astronaut and my next mission is to explore Uranus"
p450
aS"I'm like a Rubik's Cube, the more you play with me the harder I get"
p451
aS"What's the difference between a Ferrari and an erection? I don't have a Ferrari"
p452
aS'Hi, do you want to have my children? [No] OK, can we just practice then'
p453
aS"I'm afraid of the dark... Will you sleep with me tonight"
p454
aS"I love my bed but I'd rather be in yours"
p455
aS"Baby, I'm like a firefighter, I find 'em hot and leave 'em wet"
p456
aS"I spent over a grand on Viagra today, only to come here and see you and find out that I don't need it after all"
p457
aS'Brrr! My hands are cold. Can I warm them in your heaving breasts'
p458
aS"I'm hung like a tic tac. Wanna freshen your breath"
p459
aS'Do you come here often or wait till you get home'
p460
aS'Do you have a mirror in your pocket? (Why?) Because I can see myself in your pants'
p461
aS'Do you wash your panties with Windex? Because I can really see myself in them'
p462
aS'Do you need a stud in your life? Cause I got the STD and all I need is U'
p463
aS'Why pay for a bra, when I would gladly hold your boobs up all day for free'
p464
aS'You smell like trash. May I take you out'
p465
aS"If I had AIDS, would you have sex with me? [No] Well, I don't, so let's go"
p466
aS'Excuse me, but do you give head to strangers? [No] Well then, allow me to introduce myself'
p467
aS'I wanna floss with your pubic hair'
p468
aS'I want to melt in your mouth, not in your hand'
p469
aS'If your right leg was Christmas and your left leg was Easter, would you let me come for dinner between the holidays'
p470
aS'That dress looks great on you...as a matter of fact, so would I'
p471
aS"So, come back to my place, and if you don't like it I swear I'll give you a full refund"
p472
aS"Miss, If you've lost your virginity, can I have the box it came in"
p473
aS"Let's have a party and invite your pants to come on down"
p474
aS'Do you have any Italian in you? Would you like some'
p475
aS"Hey baby, let's play house, you can be the door and I'll slam you all night long"
p476
aS'Hi, my name is "Milk." I\'ll do your body good'
p477
aS'I think I could fall madly in bed with you'
p478
aS"Let's play carpenter. First we'll get hammered, then I'll nail you"
p479
aS"We're like hot chocolate and marshmallows... You're hot and I wanna be on top of you"
p480
aS"Wanna go on an 'ate' with me? I'll give you the 'D' later"
p481
aS"You're so hot, even my pants are falling for you"
p482
aS'Are you from the Philippines? Because I wanna phil you with my penis'
p483
aS"Do you like Ramen Noodles? Cuz I'll be Rammin' my noodle in you later"
p484
aS'Are you spaghetti cause I want you to meat my balls'
p485
aS'Do you like whales? Cause we can go hump back at my place'
p486
aS'Baby I last longer than a white crayon'
p487
aS'Do you like to draw? Cause I put the D in Raw'
p488
aS"We should play strip poker. You can strip, and I'll poke you"
p489
aS'You remind me of the movie "Scarface" cause I want you to say hello to my little friend'
p490
aS'Do you like Adele? Cause I can tell you wanna be rolling in the D'
p491
aS'Girl, you should sell hotdogs, because you already know how to make a wiener stand'
p492
aS'I had a wet dream about you last night. Would you like to make it a reality'
p493
aS'"Do you like cherries?" [No.] "Ok, can I have yours?'
p494
aS'Do you know what winks and screws like a tiger? [No] Wink'
p495
aS"Hey baby, wanna play lion? You go kneel down right there and I'll throw you my meat"
p496
aS'[Excuse me, do you have the time?] "Yes, do you have the energy?'
p497
aS'At the office copy machine "Reproducing eh?" "Can I help?'
p498
aS'Do you have a phone in your back pocket? Because your booty is calling me'
p499
aS'(Use index finger to call someone over then say) I made you come with one finger, imagine what I could do with my whole hand'
p500
aS'Hi, wanna f**k? [No] Mind lying down while I do'
p501
aS'I know a great way to burn off the calories in that pastry you just ate'
p502
aS'I miss my teddy bear. Would you sleep with me'
p503
aS'Is your name daisy? Because I have a sudden urge to plant you right here'
p504
aS'Does your ass have Allstate insurance? [No, why?] Well do you want it to be in good hands'
p505
aS'Let me insert my plug into your socket and we can generate some electricity'
p506
aS'You have been very naughty. Go to my room'
p507
aS"Do you like Wendy's? Cause you're gonna love Wendy's nuts slap yo face"
p508
aS"Don't ever change. Just get naked"
p509
aS'Are those jeans Guess? Cause guess who wants to be inside them..'
p510
aS'Do you like bacon? Wanna strip'
p511
aS'Hey there, I just took some Cialis and I have 18 hours left'
p512
aS'I must expel some seminal fluid. May I use your body'
p513
aS'Hold out two fingers and say: "Why should a woman masturbate with these two fingers?" (I don\'t know.) "\'Cause they\'re mine sweetheart.'
p514
aS'I wanna put my thingy into your thingy'
p515
aS'Excuse me, I am about to go masturbate and needed a name to go with the face'
p516
aS'I would absolutely love to swap bodily fluids with you'
p517
aS"Let's go to my place and do the things I'll tell everyone we did anyway"
p518
aS"I'm gonna have sex with you tonight so, you might as well be there"
p519
aS"I'm not Asian but I'll still eat your cat"
p520
aS"Are you the lottery lady on TV, because I'm picturing you holding up my balls"
p521
aS"Damn girl I'd love to kiss those beautiful, luscious lips. And the ones on your face"
p522
aS'I have a job for you, but it blows'
p523
aS"Do you have a shovel? Cause I'm diggin' that ass"
p524
aS'The things I would do if I got a few roofies in you'
p525
aS'Damn, are you my new boss, because you just gave me a raise'
p526
aS"You're so hot you could make a deceased man's dick rise from the dead"
p527
aS"As long as I have a face, you'll have a place to sit"
p528
aS'You must be yogurt because I want to spoon you'
p529
aS"Do you like tapes and CD's? Cause I'm gonna tape this dick to your forehead so you CD's nuts"
p530
aS"Do you work at the wood store? Cause I could've sworn you gave me wood before"
p531
aS"Do you like soda? Because I'd mount-and-do you. (Mountain Dew"
p532
aS'Is it hot in here, or are your boobs just huge'
p533
aS"I'm peanut butter, you're jelly, let's have sex"
p534
aS"If it's true that we are what we eat, then I could be you by tomorrow morning"
p535
aS"Remember my name, because you'll be screaming it later"
p536
aS'Nice shoes, wanna f**k'
p537
aS'Nice socks. Can I try them on after we have sex'
p538
aS'Nice tits. Mind if I squeeze them'
p539
aS"Oh, you're a bird watcher. [Pull out your dong] Well, would you take this for a swallow"
p540
aS'Are you an elevator? Cause I wanna go down on you'
p541
aS"Is your name Osteoporosis? Because you're giving me a serious bone conditio"
p542
aS'Your bone structure is giving my bone structure'
p543
aS"Is your name winter? Because you'll be coming soon"
p544
aS"Do you like jalape\xc3\xb1os? Cause in a minute I'll be jalape\xc3\xb1o pussy"
p545
aS"Are you a shark? Cause I've got some swimmers for you to swallow"
p546
aS"Are you jewish? Cause the way you're looking at me, I'm beginning to think Jewish this dick was in your mouth"
p547
aS"Do you work for Papa Johns? Cause you're a fine pizza ass"
p548
aS'Girl are you a witch? Cause you know how to make something stand without even touching i'
p549
aS"Are you from China? Cause I'm China get in your pants"
p550
aS"Do you like Pizza Hut? Cause I'll stuff your crust"
p551
aS"Since we've been told to reduce waste these days, what you say we use these condoms in my pocket before they expire"
p552
aS'[Take an ice cube to the bar, smash it, and say] "Now that I\'ve broken the ice, will you sleep with me?'
p553
aS'The only reason I would kick you out of bed would be to f**k you on the floor'
p554
aS'The word of the day is "legs." Let\'s go back to my place and spread the word'
p555
aS"We're going to dance to one song, then go back to my apartment and f**k"
p556
aS'What can I do to make you sleep with me'
p557
aS"Let's go back to my room and do some math: Add a bed, subtract our clothes, divide your legs, and multiply"
p558
aS'I wish you were a screen door, so I could slam you all day long'
p559
aS'Do you like yoga? Cause Yoganna love this dick'
p560
aS"Your place or mine? Tell you what? I'll flip a coin. Head at my place, tail at yours"
p561
aS"I'd like to get between your legs and eat my way straight to your heart.."
p562
aS"Hey! Wanna play war? I'll lay on the ground and you blow the f**k outta me"
p563
aS'If we were both squirrels, would you let me bust a nut in your hole'
p564
aS"My dick's been feeling a little dead lately. Wanna give it some mouth-to-mouth"
p565
aS'If I told you I had a 2 inch dick would you f**k me? [No] Good, because mine is 8 inches'
p566
aS'Do you like apples? [Yes/No] How about I take you home and f**k the sh*t out of you. How do like them apples'
p567
aS"Do you like jewels? [Yes/No] well, suck my dick, it's a gem"
p568
aS'They say sex is a killer... Do you want to die happy'
p569
aS"First, I'd like to kiss you passionately on the lips, then, I'll move up to your belly button"
p570
aS'Your lips are kinda wrinkled. Mind if I press them'
p571
aS'I have a big headache. I hear the best cure for headaches is sex. What say we go upstairs and work out a remedy'
p572
aS"So, Is it safe to say I'm gonna score"
p573
aS'I just checked my schedule and I can have you pregnant by Christmas'
p574
aS"I'm like Domino's Pizza. If I don't come in 30 minutes, the next one is free"
p575
aS'Do you like my belt buckle? (any response is okay ) It would look better against your forehead'
p576
aS'Do you wanna come to the Marines, or would your rather have a Marine come into you'
p577
aS"Are you gay? [No] Wow, me neither, let's have sex"
p578
aS'If I washed my dick, would you suck it? [No] Oh, so you like to suck dirty dicks'
p579
aS'Nice f**king weather. Want to'
p580
aS'That outfit would look great in a crumpled heap next to my bed'
p581
aS"We're out of bleach. Do you want to go in the janitor's closet and make out"
p582
aS'There are 206 bones in the human body. How would you like one more'
p583
aS'Those are nice jeans, do you think I could get in them'
p584
aS'Wanna play carnival? You sit on my face and I guess how much you weigh'
p585
aS'What do you like for breakfast'
p586
aS'Which is easier? You getting into those tight pants or getting you out of them'
p587
aS"Why don't you come over here, sit on my lap and we'll talk about the first thing that pops up"
p588
aS"Why don't you surprise your roommate and not come home tonight"
p589
aS'You have some nice jewelry. It would look great on my nightstand'
p590
aS'Are those lumberjack pants your wearing? They are giving me a wood'
p591
aS"You remind me of a championship bass, I don't know whether to mount you or eat you"
p592
aS"Hey baby, as long as I have a face, you'll have a place to sit"
p593
aS"Hey baby there's a party in my pants and you are invited"
p594
aS'Can I walk through your bushes and climb your mountains'
p595
aS"Hey I'm looking for treasure, Can I look around your chest"
p596
aS"I'm a freelance gynecologist. How long has it been since your last checkup"
p597
aS'Do you take Visa'
p598
aS'Excuse me, I just shit in my pants. Can I get in yours'
p599
aS'You are the reason that god invented boners'
p600
aS'With great penis, comes great responsibility'
p601
aS'If I flip a coin, what are my chances of getting head'
p602
aS"If you're feeling down, I can feel you up"
p603
aS'There are so many things you can do with the human mouth... why waste it on talking'
p604
aS'How do you like your eggs? Poached, scrambled or fertilized'
p605
aS'You smell... We should go take a shower together'
p606
aS'Would you like a hotdog to go with those buns'
p607
aS"You're like my own personal brand of heroin"
p608
aS'This may seem corny, but you make me really horny'
p609
aS"I'm a burglar and I'm gonna smash your backdoor in"
p610
aS"Do you wanna do something that rhymes with 'Truck'"
p611
aS'I have a rare disease that will kill me unless I have sex within the next 30 minutes'
p612
aS"Don't let me die! I bet my tongue can beat up your tongue"
p613
aS"Yeah, it's big and if you pet it, it spit"
p614
aS'Let us let only latex stand between our love'
p615
aS"Do you wanna see why my nickname is 'tri-pod'"
p616
aS"There are plenty of fish in the sea, but you're the only one I'd like to catch and mount back at my place"
p617
aS'I heard your ankles were having a party... want to invite your pants down'
p618
aS'Are you a virgin? [No] Prove it'
p619
aS'You bring a whole new meaning to the word, "edible.'
p620
aS"I don't know what you think of me, but I hope it's X-rated"
p621
aS"Want to play lion tamer? You could get on all fours and I'll put my head in your mouth"
p622
aS'If I was a watermelon, would you spit or swallow my seed'
p623
aS"Do you like chicken? Sorry, I haven't got any, how about a cock"
p624
aS'I think that we might be related. Let me check for the family birthmark on your chest'
p625
aS"Are you from Ireland? 'Cuz my dick's-a-Dublin! [Look down at your crotch"
p626
aS"It's not just going to suck itself"
p627
aS"I'm a writer, you're a writer, how about we get naked together and put some poetry in motion"
p628
aS'Are you from Africa? Cause I wanna know Kenya suck this dick'
p629
aS'[Hold up a screw] Wanna screw'
p630
aS'Do you want to come over to my place and feed your beaver some wood'
p631
aS"[What are you doing?] I'm taking off my shoes. [Why?] So I can take off my pants"
p632
aS"How about you be my story and I'll be your climax"
p633
aS'"I have this magic watch that can actually talk to me. Seriously, it\'s saying something right now. It says that you\'re not wearing any underwear, is that true?." [No.] "Oh wait, my watch is an hour fast'
p634
aS"Is your name Dora? Cause I'll let you explore this dick"
p635
aS'I like your hair, your eyes, your smile... I like every bone in your body... Especially mine'
p636
aS'Do you sleep on your stomach? [No] Can I'
p637
aS'Lets play "Titanic." When I say "Iceburg!" you do down'
p638
aS'Do you believe guys think with their dick? (Yeah.) Well, in that case, will you blow my mind'
p639
aS'Smile. It is the second best thing you can do with your lips'
p640
aS"Don't you think most people who use pick-up lines are dipsticks? (Yes.) In that case, mind if I check your oil level"
p641
aS'Your shirt has to go, but you can stay'
p642
aS'Would you like to actively engage in mock procreation'
p643
aS"I'm easy. Are you"
p644
aS'Would you like to try an Australian kiss? It is just like a French kiss, but down under'
p645
aS'Could you do me a favor? Could you get on your knees and smile like a donut'
p646
aS'This is a condom. If we put it on, we can have sex'
p647
aS'I WANT SEX! Sorry, the doctor said that would help..'
p648
aS'Do you believe in free love? [No] Then how much do you cost'
p649
aS"Hey baby, I'll f**k you so well, the NEIGHBORS will be having a cigarette when we're done"
p650
aS"Want to make a porno? We don't have to tape it"
p651
aS"Let's not mess with nature. We are here to make babies. So, let's get to it"
p652
aS"Gee, that's a nice set of legs, what time do they open"
p653
aS"I don't know you, and you don't know me, but who's to say it's wrong if we sleep together"
p654
aS"Is it that cold out or are you just smuggling tic-tac's in your bra"
p655
aS"I just popped a Viagra. So, we've got about 30 minutes to get back to your place"
p656
aS"I think that pick-up lines are for people with to much time on their hands. Let's just f**k"
p657
aS'You have a beautiful voice. I bet it would sound even better muffled by my penis'
p658
aS'If you can dance, you have my hand, but if you can sing, you have my heart'
p659
aS"I hope to God you can't sing because I just wanna f**k you"
p660
aS"That's a nice shirt. Can I talk you out of it"
p661
aS"Hi, I'm gay. Do you think you can convert me"
p662
aS"I'm the finger down your spine when all the lights go out"
p663
aS"If I'm a pain in your ass... We can just add more lubricants"
p664
aS"Life is short. Let's f**k and see if there is anything after that. Let me eat you for an hour. If you don't want to have sex after that, we won't"
p665
aS'All those curves, and me with no brakes'
p666
aS"[Give the person a bottle of wine or tequila] Drink this, and then call me when you're ready"
p667
aS'Hi, will you help me find my lost puppy? I think he went into this cheap motel room across the street'
p668
aS"I'm trying to determine after years of therapy and lots of testing, whether or not I'm allergic to sex"
p669
aS'[Walk into her chest] "If they weren\'t sooo large, it wouldn\'t have happened!'
p670
aS"If the sun were to stop shining, I'd be your source of vitamin D"
p671
aS'How much will $20 get me'
p672
aS'Roses are red, violets are blue, I suck at pick up lines... nice tits'
p673
aS'Want to spend the night at my house tonight? The couch may not pull out, but I do'
p674
aS"So, come back to my place, and if you don't like it I swear I'll give you a full refund"
p675
aS'What are you doing tonight? Besides me, of course'
p676
aS"Will you be my girlfrien? I left out the 'd' cause you'll get that later"
p677
aS'My name is Skittles... wanna taste my rainbow'
p678
aS"Are those pants on sale? Cause they're 100% off at my place"
p679
aS"I'm with the TSA and I need to perform a full body cavity search, for security reasons"
p680
aS'Can I be the wiener in your hotdog'
p681
aS"I only have 12 hours to live... please don't let me die a virgin"
p682
aS"I'm bigger and better than the Titantic - only 200 women went down on that vessel"
p683
aS'What is a nice girl like you doing in a dirty mind like mine'
p684
aS'What has 132 teeth and holds back the Incredible Hulk? My zipper'
p685
aS'With my IQ and your body, we could make a race of superchildren and conquer the earth'
p686
aS'You remind me of a crop, because I wanna plow you'
p687
aS'On a scale from 1 to "the human centipede", how close am I to that ass'
p688
aS'Do you like long cocks on the beach'
p689
aS"Do you have an Asian passport? Because I'm China get into your Japantee"
p690
aS"I'd crawl over a thousand miles of broken glass just to suck the dick of the last guy you slept with"
p691
aS"Hey baby, I've got a back seat with your name on it"
p692
aS'I wanna paint you green and spank you like a disobedient avocado'
p693
aS'I have the entire dictionary written on my dick'
p694
aS'Want me to put some words in your mouth?'
p695
aS'The FBI wants to steal my penis. Can I hide it inside you'
p696
aS'You should join the circus so you can learn to juggle my balls all day'
p697
aS'I wanna go inside your wine cabinet and pull myself out a stiff one'
p698
aS'Are you a candle? Because I want to blow you'
p699
aS"I'm no good at pick up lines, but I can pick you up and you will feel my line"
p700
aS'You wanna go out this weekend? [Sorry, I have a boyfriend] I have a math test tomorrow [What?] Oh, I thought we were talking about things we could both cheat on'
p701
aS'Are those space pants? Cuz your ass is out of this worl'
p702
aS'Are you a magician? Because whenever I look at you, everyone else disappears!'
p703
aS"I'm not a photographer, but I can picture me and you together."
p704
aS'Are you an interior decorator? Because when I saw you, the entire room became beautiful.'
p705
aS"Are you religious? Because you're the answer to all my prayers."
p706
aS'Are you a camera? Because every time I look at you, I smile.'
p707
aS'Did you sit in a pile of sugar? Cause you have a pretty sweet ass.'
p708
aS'Do you have a Band-Aid? Because I just scraped my knee falling for you.'
p709
aS'Do you know what my shirt is made of? Boyfriend material.'
p710
aS"If I were a stop light, I'd turn red everytime you passed by, just so I could stare at you a bit longer."
p711
aS'I wanna live in your socks so I can be with you every step of the way.'
p712
aS"If you were a vegetable you'd be a cute-cumber."
p713
aS'I seem to have lost my phone number. Can I have yours?'
p714
aS"Is your daddy a Baker? Because you've got some nice buns!"
p715
aS'There are people who say Disneyland is the happiest place on earth. Apparently, none of them have ever been in your arms.'
p716
aS'Did you invent the airplane? Cause you seem Wright for me.'
p717
aS"If God made anything more beautiful than you, I'm sure he'd keep it for himself."
p718
aS"Do you have a map? I'm getting lost in your eyes."
p719
aS"I don't have a library card, but do you mind if I check you out?"
p720
aS'Are you an orphanage? Cause I wanna give you kids.'
p721
aS'I was feeling a little off today, but you definitely turned me on.'
p722
aS'Are you my Appendix? Because I have a funny feeling in my stomach that makes me feel like I should take you out.'
p723
aS"I'm sorry, I don't think we've met. I wouldn't forget a pretty face like that."
p724
aS"My buddies bet me that I wouldn't be able to start a conversation with the most beautiful girl in the bar. Wanna buy some drinks with their money?"
p725
aS'Are you a fruit, because Honeydew you know how fine you look right now?'
p726
aS"Does your left eye hurt? Because you've been looking right all day."
p727
aS'I will stop loving you when an apple grows from a mango tree on the 30th of February.'
p728
aS"Do you live in a corn field, cause I'm stalking you."
p729
aS'Sorry, but you owe me a drink. [Why?] Because when I looked at you, I dropped mine.'
p730
aS"Are you a parking ticket? 'Cause you've got fine written all over you."
p731
aS'You look cold. Want to use me as a blanket?'
p732
aS'Can I have directions? [To where?] To your heart.'
p733
aS"I'm not drunk, I'm just intoxicated by YOU."
p734
aS"I was so enchanted by your beauty that I ran into that wall over there. So I'm going to need your name and number for insurance purposes."
p735
aS'Is there an airport nearby or is that just my heart taking off?'
p736
aS"I'm not staring at your boobs. I'm staring at your heart."
p737
aS"You're the only girl I love now... but in ten years, I'll love another girl. She'll call you 'Mommy.'"
p738
aS'Can I take your picture to prove to all my friends that angels do exist?'
p739
aS'I tried my best to not feel anything for you. Guess what? I failed.'
p740
aS"Your body is 65% water and I'm thirsty."
p741
aS"Hey, don't frown. You never know who could be falling in love with your smile."
p742
aS"My doctor says I'm lacking Vitamin U."
p743
aS"Have you been to the doctor lately? Cause I think you're lacking some Vitamin Me."
p744
aS"Forget about Spiderman, Superman, and Batman. I'll be your man."
p745
aS'Can I follow you home? Cause my parents always told me to follow my dreams.'
p746
aS'Because of you, I laugh a little harder, cry a little less, and smile a lot more.'
p747
aS'For a moment I thought I had died and gone to heaven. Now I see that I am very much alive, and heaven has been brought to me.'
p748
aS"You look so familiar\xe2\x80\xa6 didn't we take a class together? I could've sworn we had chemistry."
p749
aS"Fascinating. I've been looking at your eyes all night long, 'cause I've never seen such dark eyes with so much light in them."
p750
aS"Was your dad a boxer? Cause you're a knockout!"
p751
aS"You're so beautiful that you made me forget my pickup line."
p752
aS"You shouldn't wear makeup. It's messing with perfection!"
p753
aS"If I had a star for every time you brightened my day, I'd have a galaxy in my hand."
p754
aS"Damn, if being sexy was a crime, you'd be guilty as charged!"
p755
aS'I was wondering if you had an extra heart mine seems to have been stolen'
p756
aS'I thought happiness started with an H. Why does mine start with U?'
p757
aS"If I were a cat I'd spend all 9 lives with you."
p758
aS'Do you work at Starbucks? Because I like you a latte.'
p759
aS'Are you a banana? Because I find you a-peeling'
p760
aS'Did you read Dr. Seuss as a kid? Because green eggs and... damn!'
p761
aS"Is your dad a drug dealer? Cause you're so Dope!"
p762
aS"Smoking is hazardous to your health... and baby, you're killing me!"
p763
aS"There isn't a word in the dictionary for how good you look."
p764
aS'Me without you is like a nerd without braces, A shoe without laces, aSentenceWithoutSpaces'
p765
aS'Babe, your beauty makes the morning sun look like the dull glimmer of the moon.'
p766
aS"Most people like to watch the Olympics, because they only happen once every 4 years, but I'd rather talk to you cause the chance of meeting someone so special only happens once in a lifetime."
p767
aS'If I\xe2\x80\x99m vinegar, then you must be baking soda. Because you make me feel all bubbly inside!'
p768
aS'You must be the cure for Alzheimer\xe2\x80\x99s, because you\xe2\x80\x99re unforgettable.'
p769
aS'I\xe2\x80\x99m in the mood for pizza... a pizza you, that is!'
p770
aS'I was so content with my life and one day I asked God, what could be better than this? And then I met you.'
p771
aS"Are you from Tennessee? Because you're the only ten I see!"
p772
aS"I must be a snowflake, because I've fallen for you."
p773
aS"There is something wrong with my cell phone. It doesn't have your number in it."
p774
aS"Baby, if you were words on a page, you'd be what they call FINE PRINT!"
p775
aS"Do you work at Dick's? Cause you're sporting the goods."
p776
aS'You must be a hell of a thief because you stole my heart from across the room.'
p777
aS'Do you have a twin sister? Then you must be the most beautiful girl in the world!'
p778
aS"You know I'd like to invite you over, but I'm afraid you're so hot that you'll skyrocket my air-conditioning bill."
p779
aS'Excuse me, but I think I dropped something. MY JAW!'
p780
aS"If you were a booger I'd pick you first."
p781
aS'Do you know what I did last night? I looked up at the stars, and matched each one with a reason why I love you.'
p782
aS"Excuse me, I think you have something in your eye. Oh wait, it's just a sparkle."
p783
aS'If I were to ask you out on a date, would your answer be the same as the answer to this question?'
p784
aS'If this bar is a meat market, you must be the prime rib.'
p785
aS"Are you lost ma'am? Because heaven is a long way from here."
p786
aS"I'm fighting the urge to make you the happiest woman on earth tonight."
p787
aS"Are you a campfire? Cause you are hot and I want s'more."
p788
aS"You're kinda, sorta, basically, pretty much always on my mind."
p789
aS"Put down that cupake... you're sweet enough already."
p790
aS"You wanna know what's beautiful? Read the first word again."
p791
aS"My love for you is like diarrhea, I just can't hold it in."
p792
aS"Hello, I'm a thief, and I'm here to steal your heart."
p793
aS"Hey baby you're so fine you make me stutter, wha-wha-what's your name?"
p794
aS"I bet you $20 you're gonna turn me down."
p795
aS"I'm not actually this tall. I'm sitting on my wallet."
p796
aS'When I first saw you I looked for a signature, because every masterpiece has one.'
p797
aS"I like Legos, you like Legos, why don't we build a relationship?"
p798
aS'Baby I might not be Sriracha sauce but, I sure will spice up your life.'
p799
aS'Are you Jewish? Cause you ISRAELI HOT.'
p800
aS"You may be asked to leave soon, you're making all the other women look bad."
p801
aS'Do you have the time? [Tells you the time] No, the time to write down my number?'
p802
aS"Would you grab my arm so I can tell my friends I've been touched by an angel?"
p803
aS'Hey... Didn\'t I see your name in the dictionary under "Shazaam!"?'
p804
aS"Are you African? Because you're a frican babe."
p805
aS"There's only one thing I want to change about you, and that's your last name."
p806
aS'If a thousand painters worked for a thousand years, they could not create a work of art as beautiful as you.'
p807
aS'Rejection can lead to emotional stress for both parties involved and emotional stress can lead to physical complications such as headaches, ulcers, cancerous tumors, and even death! So for my health and yours, JUST SAY YES!'
p808
aS'Of all the beautiful curves on your body, your smile is my favorite.'
p809
aS'Did you have lucky charms for breakfast? Because you look magically delicious!'
p810
aS'No wonder the sky is grey today, all the blue is in your eyes.'
p811
aS'Can I borrow your cell phone? I need to call animal control, because I just saw a fox!'
p812
aS"I'm no organ donor but I'd be happy to give you my heart."
p813
aS"If I had a penny for every time I thought of you, I'd have exactly one cent, because you never leave my mind."
p814
aS"Hershey's makes millions of kisses a day.. .all I'm asking for is one from you."
p815
aS'Life without you would be like a broken pencil... pointless.'
p816
aS'I may not be a genie, but I can make your dreams come true.'
p817
aS"Kiss me if I'm wrong, but dinosaurs still exist, right?"
p818
aS"If I received a nickel for everytime I saw someone as beautiful as you, I'd have five cents."
p819
aS'If nothing lasts forever, will you be my nothing?'
p820
aS'Hello are you married? [Yes] Well I didn\'t hear you say "happily".'
p821
aS'You are like a candy bar: half sweet and half nuts.'
p822
aS'Excuse me, but does this smell like chloroform to you?'
p823
aS"Hello how are you? [Fine] Hey, I didn't ask you how you looked!"
p824
aS'Did you clean your pants with Windex? I can practically see myself in them.'
p825
aS'How was heaven when you left it?'
p826
aS'Did you fart, cause you blew me away.'
p827
aS"You know you're in love when you can't fall asleep because reality is finally better than your dreams."
p828
aS"Hey... somebody farted. Let's get out of here."
p829
aS"I didn't know that angels could fly so low!"
p830
aS"There must be something wrong with my eyes, I can't take them off you."
p831
aS'You are so fine, I wish I could plant you and grow a whole field of you!'
p832
aS'Is your last name Gillette? Because you are the best a man can get.'
p833
aS'Is your name "swiffer"? \'Cause you just swept me off my feet.'
p834
aS'Excuse me, but you dropped something back there" (What?) "This conversation, lets pick it up later tonight.'
p835
aS'Are you going to kiss me or do I have to lie to my diary?'
p836
aS'Are you cold? You look like you could use some hot chocolate... Well, here I am!'
p837
aS'If stars would fall everytime I would think of you, the sky would soon be empty.'
p838
aS"You know, Dr. Phil says I'm afraid of commitment...Want to help prove him wrong?"
p839
aS'Your lips look so lonely.... Would they like to meet mine?'
p840
aS"Baby, you're so sweet, you put Hershey's outta business."
p841
aS'Can I buy you a drink or do you just want the money?'
p842
aS'Did the sun come out or did you just smile at me?'
p843
aS"So there you are! I've been looking all over for YOU, the woman of my dreams!"
p844
aS'Do you believe in love at first sight, or should I walk by again?'
p845
aS"Inheriting eighty million bucks doesn't mean much when you have a weak heart."
p846
aS"You see my friend over there? [Point to friend] He wants to know if YOU think I'M cute."
p847
aS"The only thing your eyes haven't told me is your name."
p848
aS'Excuse me, I just noticed you noticing me and I just wanted to give you notice that I noticed you too.'
p849
aS"(As she is leaving) Hey aren't you forgetting something? (What?) Me!"
p850
aS"Somebody better call God, cuz heaven's missing an angel!"
p851
aS'Can I borrow a quarter? ["What for?"] I want to call my mom and tell her I just met the man/woman of my dreams.'
p852
aS"I'm Mr. Right, someone said you were looking for me?"
p853
aS"Can I borrow a kiss? I promise I'll give it back."
p854
aS"If I were a transplant surgeon, I'd give you my heart."
p855
aS"Are you Willy Wonka's daughter, 'cuz you look sweet and delicious."
p856
aS"If you were a transformer, you'd be a HOT-obot, and your name would be Optimus Fine."
p857
aS"Do you remember me? [No.] Oh that's right, we've only met in my dreams."
p858
aS'Did it hurt? (Did what hurt?) When you fell out of heaven?'
p859
aS"I'm sorry, were you talking to me? [No] Well then, please start."
p860
aS'I know milk does a body good, but baby, how much have you been drinking?'
p861
aS'I play the field, and it looks like I just hit a home run with you.'
p862
aS"I'm new in town. Could you give me directions to your apartment?"
p863
aS"If I could rearrange the alphabet, I would put 'U' and 'I' together."
p864
aS'If you were a tear in my eye I would not cry for fear of losing you.'
p865
aS'If your heart was a prison, I would like to be sentenced for life.'
p866
aS'My lenses turn dark in the sunshine of your love.'
p867
aS"Was you father an alien? Because there's nothing else like you on Earth!"
p868
aS'What time do you have to be back in heaven?'
p869
aS"Baby, I'm no Fred Flintstone, but I can make your Bedrock!"
p870
aS"Wouldn't we look cute on a wedding cake together?"
p871
aS"You'd better direct that beauty somewhere else, you'll set the carpet on fire."
p872
aS"Your legs must be tired because you've been running through my mind all night."
p873
aS'[Point at her butt] Pardon me, is this seat taken?'
p874
aS"Was your father a thief? 'Cause someone stole the stars from the sky and put them in your eyes."
p875
aS'Do you have a pencil? Cause I want to erase your past and write our future.'
p876
aS'I love you like a pig loves not being bacon.'
p877
aS'Are your parents bakers? Cause they sure made you a cutie pie!'
p878
aS'Did you go to bed early last night? From the looks of it, you got your beauty sleep.'
p879
aS"What's on the menu? Me-n-U"
p880
aS"You're like pizza. Even when you are bad, you're good"
p881
aS"I'd say God Bless you, but it looks like he already did."
p882
aS'I must be in a museum, because you truly are a work of art.'
p883
aS"My friend thinks you're kinda cute, but I don't... I think you're absolutely gorgeous!"
p884
aS"Let's commit the perfect crime: I'll steal your heart, and you'll steal mine."
p885
aS'You spend so much time in my mind, I should charge you rent.'
p886
aS"If kisses were snowflakes, I'd send you a blizzard"
p887
aS"Are you my phone charger? Because without you, I'd die."
p888
aS"How come you're not on top of a Christmas tree? I thought that's where angels belonged."
p889
aS'Are you a hipster, because you make my hips stir.'
p890
aS'Are you a cat? Cause you are purrrfect'
p891
aS'Does your father sell diamonds? Because you are FLAWLESS!'
p892
aS"If you were a tropical fruit, you'd be a Fine-apple!"
p893
aS'I wish I was cross eyed, so I could see you twice.'
p894
aS"Are you on Nickelodeon? Cause you're a-Dora-ble!"
p895
aS"I don't know if you're beautiful, I haven't gotten past your eyes yet."
p896
aS"You don't need keys to drive me crazy."
p897
aS"My name isn't Elmo, but you can tickle me any time you want to."
p898
aS'Can you take me to the doctor? Because I just broke my leg falling for you.'
p899
aS'People call me John, but you can call me tonight.'
p900
aS'You must be a ninja, because you snuck into my heart'
p901
aS'I need a dollar, but I only have 90 cents... do you want to be my dime?'
p902
aS'[Look at her shirt label.] When they say, "What are you doing?" You respond: "Yep! Made in heaven!"'
p903
aS'Are you a magician??? Because Abraca-DAYUM!'
p904
aS"You're so hot, that if you ate a piece of bread, you'd poop out toast!"
p905
aS'Be unique and different, say yes.'
p906
aS"Your eyes are blue, like the ocean. And baby, I'm lost at sea."
p907
aS'You know how they say skin is the largest organ on the human body? Not in my case.'
p908
aS'My lips are like skittles. Wanna taste the rainbow?'
p909
aS'They say dating is a numbers game... so can I get your number?'
p910
aS"My name isn't Elmo, but you can tickle me any time you want to."
p911
aS"You be the Dairy Queen and I'll be your Burger King: You treat me right, and I'll do it your way."
p912
aS'(Ask a person for the time) 9:15? So today is May 1, 2008, at 9:15 PM, thanks I just wanted to be able to remember the exact moment that I met the woman of my dreams.'
p913
aS"Pinch me. [Why?] You're so fine I must be dreaming."
p914
aS'If I had to choose between breathing or loving you, I would say "I love you" with my last breath!'
p915
aS'Ouch! My tooth hurts! [Why?] Because you are soooo sweet!'
p916
aS"I'm not trying to impress you or anything, but... I'm Batman!"
p917
aS"You must be from Pearl Harbor, because baby, you're the bomb."
p918
aS'You must be Jamaican, because Jamaican me crazy.'
p919
aS"Do you know karate? Because your body is really kickin'."
p920
aS'When God made you, he was showing off.'
p921
aS'Are you a Snickers bar? Cause you satisfy me.'
p922
aS'Is your dad a terrorist? Because you are the bomb.'
p923
aS'Is your last name Campbell? Cause you\'re "mmmm... good!"'
p924
aS"You're like a dictionary, you add meaning to my life!"
p925
aS'Baby, you are so fine I could put you on a plate and sop you up with a biscuit.'
p926
aS"Is there a rainbow today? I just found the treasure I've been searching for!"
p927
aS'You remind me of a magnet, because you sure are attracting me over here!'
p928
aS'Hey, is it just me, or are we destined to be married?'
p929
aS'Hello. Are you taking any applications for a boy/girlfriend?'
p930
aS'I have an "owie" on my lip. Will you kiss it and make it better?'
p931
aS"Let's make like a fabric softener and 'Snuggle"
p932
aS"I didn't see any stars in the sky tonight, the most heavenly body was standing right next to me."
p933
aS'Hi, my name is Doug. That\'s "god" spelled backwards with a little bit of you wrapped up in it.'
p934
aS"If I could reach out and hold a star for everytime you've made me smile, I'd hold the sky in the palm of my hand."
p935
aS'Well, here I am. What were your other two wishes?'
p936
aS"(Put your fingers on the other's nipples) Hey, here's (name), comin' at you with the weather. Can I be your warm front?"
p937
aS"How much does a polar bear weigh? [How much?] Enough to break the ice... Hi, I'm (insert name here)."
p938
aS'Well, I AM telepathic, and I can tell that you love me. Right? [NO!] Darn, I always get "love" and "lust" mixed up.'
p939
aS'Should I smile because we are friends, or cry because I know that is what we will ever be?'
p940
aS'When I look into your eyes, it is like a gateway into the world of which I want to be a part.'
p941
aS'Hey baby. You got a jersey? [A jersey?...Why?] Because I need your name and number.'
p942
aS"Hello, I'm doing a survey of what people think are the cheesiest pickup lines. So, do you pick 'Do you come here often?', 'What's your sign?', or 'Hello, I'm doing a survey of what people think are the cheesiest pickup lines.'?"
p943
aS'(hold out hand) Would you hold this for me while I go for a walk?'
p944
aS'This time next year let\xe2\x80\x99s be laughing together.'
p945
aS'Is your last name Whitman, because I want to sample you.'
p946
aS'Let me tie your shoes, cause I dont want you falling for anyone else.'
p947
aS"On a scale of 1 to 10, you're a 9. I'm the 1 you need."
p948
aS'Most guys need 3 meals a day to keep going... I just need eye contact from you.'
p949
aS'Hey baby, I must be a light switch, cuz every time I see you, you turn me on!'
p950
aS'Are you a beaver? Cause daaaaam!'
p951
aS'I hope your day has been as beautiful as you are.'
p952
aS'Do I know you? Cause you look just like my next girlfriend.'
p953
aS"Is your father Little Caesar? Cause you look Hot 'n Ready."
p954
aS"I could use some spare change and you're a dime."
p955
aS"I'm no mathematician, but I'm pretty good with numbers. Tell you what, Give me yours and watch what I can do with it."
p956
aS"Didn't I see you on the cover of Vogue?"
p957
aS"Excuse me, I don't want you to think I'm ridiculous or anything, but you are the most beautiful woman I have ever seen. I just felt like I had to tell you."
p958
aS'Have you always been this cute, or did you have to work at it?'
p959
aS"Hey, don't I know you? Yeah, you're the girl with the beautiful smile."
p960
aS'Was your father a mechanic? Then how did you get such a finely tuned body?'
p961
aS'I have had a really bad day and it always makes me feel better to see a pretty girl smile. So, would you smile for me?'
p962
aS'I hope you know CPR, cuz you take my breath away!'
p963
aS'I just had to come talk with you. Sweetness is my weakness.'
p964
aS"I think I can die happy now, cause I've just seen a piece of heaven."
p965
aS'Apart from being sexy, what do you do for a living?'
p966
aS'If I told you that you had a great body, would you hold it against me?'
p967
aS'I sneezed because God blessed me with you.'
p968
aS'Is it hot in here or is it just you?'
p969
aS"Nice to meet you, I'm (your name) and you are...gorgeous!"
p970
aS'So, what do you do for a living besides always making all the men excited and warm all over?'
p971
aS'I may not be a genie, but I can make all your wishes come true!'
p972
aS'Was your dad king for a day? He must have been to make a princess like you.'
p973
aS"Were you arrested earlier? It's gotta be illegal to look that good."
p974
aS"Were your parents Greek Gods, 'cause it takes two gods to make a goddess."
p975
aS'What does it feel like to be the most beautiful girl in this room?'
p976
aS"What's that on your face? Oh, must just be beauty. Here, let me get it off. Hey, it's not coming off!"
p977
aS'Wow! Are those real?'
p978
aS'I blame you for global warming... your hotness is too much for the planet to handle!'
p979
aS'You are the reason men fall in love.'
p980
aS'Are you Australian? Because you meet all of my koala-fications.'
p981
aS'You know the more I drink, the prettier you get!'
p982
aS'You know, I would die happy if I saw you naked just once!'
p983
aS"If you were ground coffee, you'd be Espresso cause you're so fine."
p984
aS"You better call Life Alert, 'cause I've fallen for you and I can't get up."
p985
aS"You're single. I'm single. Coincidence? I think not."
p986
aS"You know, you might be asked to leave soon. You're making the other women look really bad."
p987
aS'You look like my third wife. [how many time have you been married?] Twice.'
p988
aS'You make me melt like hot fudge on a sundae.'
p989
aS"You should be someone's wife."
p990
aS'Were you in Boy Scouts? Because you sure have tied my heart in a knot.'
p991
aS'Are you as beautiful on the inside as you are on the outside?'
p992
aS'I want to be your tear drop, so I could be born in your eyes, live on your cheeks, and die on your lips.'
p993
aS'Babe! you look so fine I could drink your bath water!'
p994
aS"You're so hot you would make the devil sweat."
p995
aS'If I had a rose for every time I thought of you, I would be walking through my garden forever.'
p996
aS"Hi, I'm writing a term paper on the finer things in life, and I was wondering if I could interview you?"
p997
aS"Girl, if I were a fly, I'd be all over you, because you're the shit!"
p998
aS'There must be a lightswitch on my forehead because everytime I see you, you turn me on!'
p999
aS'Hey, how did you do that? (What?) Look so good?'
p1000
aS'Damn girl, you have more curves than a race track.'
p1001
aS'If you stood in front of a mirror and help up 11 roses, you would see 12 of the most beautiful things in the world.'
p1002
aS'Do you have a sunburn, or are you always this hot?'
p1003
aS'You are so beautiful that I would marry your brother just to get into your family.'
p1004
aS'You look like a cool glass of refreshing water, and I am the thirstiest man in the world.'
p1005
aS"Are you a tamale? 'Cause you're hot."
p1006
aS'You are so beautiful that you give the sun a reason to shine.'
p1007
aS'Do you want to see a picture of a beautiful person? (hold up a mirror)'
p1008
aS"Do you bleach your teeth? 'Cause your smile lights up the entire room like a candle in the dark. Let's go prove it."
p1009
aS'Your ass is so nice that it is a shame that you have to sit on it.'
p1010
aS'Someone should call the police, because you just stole my heart!'
p1011
aS'Stop, drop, and roll, baby. You are on fire.'
p1012
aS"Baby, you're so hot, you make the equator look like the north pole."
p1013
aS'Come live in my heart, and pay no rent.'
p1014
aS"You're hotter than Papa Bear's porridge."
p1015
aS"I hope there's a fire truck nearby, cause you're smokin'!"
p1016
aS"If it weren't for that DAMNED sun, you'd be the hottest thing ever created."
p1017
aS'How is your fever? [What fever?] Oh... you just look hot to me.'
p1018
aS'I just got dumped, and I think that you could make me feel better.'
p1019
aS'(Walk up to someone and bite them anywhere) Sorry, taking a bite out of crime. [WHAT?] Well it has to be illegal to look that good!'
p1020
aS"You are a 9 - you'd be a perfect 10 if you were with me."
p1021
aS"Excuse me, I'd like to have kids someday, and I wanted to know how your parents created such a beautiful creature."
p1022
aS"You're so hot, I bet you could light a candle at 10 paces."
p1023
aS'I can\'t believe I\'ve been hear the entire evening with all these beautiful people and the moment I find \'The One\', all I have time to say is "good bye".'
p1024
aS"Hey baby, you've got something on your butt - my eyes!"
p1025
aS"This isn't a beer belly, It's a fuel tank for a love machine."
p1026
aS"I don't know you, but I think I love you already."
p1027
aS"Here's the key to my house, my car... and my heart."
p1028
aS"if we shared a garden, I'd put my tulips and your tulips together. (tulips = two lips)"
p1029
aS"Is your name Summer? 'Cause you are as hot as hell."
p1030
aS'If I had to choose between one night with you or winning the lottery...I would chose winning the lottery...but it would be close...real close...'
p1031
aS"Do you have any sunscreen? 'Cause you are burning me up!"
p1032
aS'See these keys? I wish I had the one to your heart.'
p1033
aS'Stare at girl . ("What\'re you staring at?")'
p1034
aS'You, Before I Wake Up From this Dream.'
p1035
aS"You're hotter than donut grease."
p1036
aS'Your eyes are as blue as window cleaner.'
p1037
aS'Was that an earthquake or did you just rock my world?'
p1038
aS"If you were a burger at McDonalds, you'd be McGorgeous."
p1039
aS"Are your parents retarded, 'cause you sure are special."
p1040
aS"If you could put a price tag on beauty you'd be worth more than Fort Knox."
p1041
aS"I must be dancing with the devil, because you're hot as hell."
p1042
aS"Are you the moon? Because even when it's dark, you still seem to shine."
p1043
aS'I never need to see the sun again because your eyes light up my world.'
p1044
aS'If you were a steak you would be well done.'
p1045
aS"It's dark in here. Wait! It's because all of the light is shining on you."
p1046
aS'Your hand looks heavy. Let me hold it for you.'
p1047
aS'Do you have any raisins? [No] How about a date?'
p1048
aS'Are you a kidnapper? Because you just abducted my heart.'
p1049
aS"Is your name Katrina? [No, why?] 'Cuz baby, you rock me like a hurricane!"
p1050
aS'Can you pull this heart-shaped arrow out of my butt? A damn little kid with wings shot me.'
p1051
aS"Is your body from McDonald's? Cause I'm lovin' it!"
p1052
aS'Are you a microwave oven? Cause you melt my heart.'
p1053
aS'Did you get your license suspended for driving so many guys crazy?'
p1054
aS'Are you a girl scout, cause you tie my heart in knots.'
p1055
aS"You're so hot, I could bake cookies on you."
p1056
aS'You look beautiful today, just like every other day.'
p1057
aS"Let's play Winnie the Pooh and get my nose stuck in your honey jar."
p1058
aS"When I'm older, I'll look back at all of my crowning memories, and I'll think of the day my children were born, the day I got married, and the day that I met you."
p1059
aS"If beauty were time, you'd be eternity."
p1060
aS"Is your car battery dead? Because I'd like to jump you."
p1061
aS"I'm lost. Can you tell me which road leads to your heart?"
p1062
aS"Even if there wasn't gravity on earth, I'd still fall for you."
p1063
aS"It's a good thing I wore gloves today. Otherwise you'd be too hot to handle."
p1064
aS'Hello. Cupid called. He says to tell you that he needs my heart back.'
p1065
aS"Is your name David? Because I'm pretty sure you could have only be crafted at the hands of Michelangelo."
p1066
aS'You look like a hard worker. I have an opening you can fill.'
p1067
aS"I know why they call it a beaver. Because I'm dying for some wood."
p1068
aS"What's your name? Because I'll be screaming it all night long."
p1069
aS"I'm wearing Revlon Colorstay Lipstick, want to help me test the claim that it won't kiss off?"
p1070
aS"I'm having a sale in my bedroom. My clothes are 100% off."
p1071
aS'Do you work at Subway? Because I could really go for a footlong.'
p1072
aS'If I told you I worked at Home Depot, would you let me handle your tool?'
p1073
aS"Are you a candle? Because I'm going to blow you."
p1074
aS"Want to give me an australian kiss? It's like french kissing, but you're going down under."
p1075
aS'Are you a burger? Because you can be the meat between my buns.'
p1076
aS"I'm French Horny for your Tromboner."
p1077
aS"Wanna make a seafood palette? You bring your mussels back to my place and I'll show you my clam."
p1078
aS'Do you know how to drive stick? Because I sure as hell do.'
p1079
aS'Do these feel real to you?'
p1080
aS'Are you a taxidermist? Ok, wanna try stuffing my kitty anyway?'
p1081
aS'Do you eat tacos? Because my Taco Bell is open.'
p1082
aS"I've got the buns, do you have the hot dog?"
p1083
aS"Do you know what'd look good on you? Me."
p1084
aS'Is my vagina crying, or are you just sexy?'
p1085
aS'In my nursing class we just learned how to bathe people... can I practice on you?'
p1086
aS'I want your flesh rocket in my hot pocket.'
p1087
aS'If I told you I worked for UPS, would you let me handle your package?'
p1088
aS"Happy Alentine's Day\xe2\x80\xa6 I'll give you the 'V' later."
p1089
aS"I'm not wearing any socks. And I have the panties to match."
p1090
aS'My body has 206 Bones. Want to give me another one?'
p1091
aS"I don't feel so good. I think I need a shot of penis-illin."
p1092
aS'You know what would make your face look better? If I sat on it.'
p1093
aS'Hi. I have a vagina.'
p1094
aS"Do you live on a chicken farm? 'Cause you sure know how to raise a cock."
p1095
aS'Are you a drill sergeant? Because you have my privates standing at attention.'
p1096
aS"You're just like my little toe, because I'm going to bang you on every piece of furniture in my home."
p1097
aS"Do you mix concrete for a living? Because you're making me hard."
p1098
aS"If you're feeling down, I can feel you up."
p1099
aS'My dick just died. Would you mind if I buried it in your ass?'
p1100
aS"Are your legs made of Nutella? Because I'd love to spread them!"
p1101
aS'There will only be 7 planets left after I destroy Uranus.'
p1102
aS"I'm no weather man, but you can expect more than a few inches tonight."
p1103
aS'Do you work at Subway? Because you just gave me a footlong.'
p1104
aS"I may not go down in history, but I'll go down on you."
p1105
aS"That shirt's very becoming on you. If I were on you, I'd be coming too."
p1106
aS'Do you work for UPS? I could have sworn I saw you checking out my package.'
p1107
aS"I hope you like dragons, because I'll be dragon my balls across your face tonight."
p1108
aS'I think it\'s time I tell you what people are saying behind your back... "Nice ass!"'
p1109
aS'I may not be a windshield repairman, but I can still fill your crack in.'
p1110
aS"Do you know the difference between my dick and a chicken wing? No? Well, let's go on a picnic and find out!"
p1111
aS"Forget that! Playing doctor is for kids! Let's play gynecologist."
p1112
aS"Are you a termite? Cause you're about to have a mouth full of wood."
p1113
aS'Your face reminds me of a wrench, every time I think of it my nuts tighten up.'
p1114
aS'Excuse me, but would you like an orally stimulated orgasm?'
p1115
aS'Do you run track? Cause I heard you Relay want this dick.'
p1116
aS'My friend over there really wants your number so he knows where to get a hold of me in the morning.'
p1117
aS"Are you from the ghetto? Cause I'm about to ghetto hold of dat ass."
p1118
aS'You know what I like in a girl? My dick.'
p1119
aS'Are you a doctor? cause you just cured my erectile dysfunction.'
p1120
aS'Your legs are like an Oreo Cookie - I wanna split them and eat all the good stuff in the middle.'
p1121
aS'Have you ever kissed a rabbit between the ears? [Pull your pockets inside out] Would you like to?'
p1122
aS'I lost my virginity. Can I have yours?'
p1123
aS'If you thought Disneyland was the happiest place on earth, you haven\xe2\x80\x99t been in my pants yet!'
p1124
aS"Hey babe, how about a pizza and a f**k? [No] What's wrong, don't you like pizza?"
p1125
aS"Hey, you wanna do a 68? You go down on me, and I'll owe you one."
p1126
aS'Someone vacuum my lap, I think this girl needs a clean place to sit.'
p1127
aS"If I could rearrange the alphabet, I'd put 'U' between 'F' and 'CK' F**k me if I'm wrong, but isn't your name Laura?"
p1128
aS"Hey Baby! I'd like to use your thighs as earmuffs."
p1129
aS'You might not be the best looking girl here, but beauty is only a light switch away.'
p1130
aS"Are you from Iraq? 'Cause I like the way you Baghdad ass up."
p1131
aS'Your breasts remind me of Mount Rushmore - my face should be among them.'
p1132
aS'Hey baby, I think you just made my two by four into a four by eight.'
p1133
aS"Is that a keg in your pants? Because I'd love to tap that ass."
p1134
aS'Hey cutie, wanna go halves on a baby?'
p1135
aS"You can call me cake, cause I'll go straight to your ass."
p1136
aS'Are you hungry? Cause omelette you suck this dick.'
p1137
aS"Do you like pudding? Cause I'll be pudding this dick in your ass."
p1138
aS'Can I read your t-shirt in braille?'
p1139
aS"Do you have an inhaler? Because you've got ass ma."
p1140
aS'Do you smoke pot? Because weed be cute together'
p1141
aS"Do you have pet insurance? Because your pussy's getting smashed tonight!"
p1142
aS"Are you my homework? Cause I'm not doing you but I definitely should be."
p1143
aS'Roses are red, violets are fine. If I be the 6, will you be the 9?'
p1144
aS"Do you go to church often? Cause you're gonna be on your knees tonight."
p1145
aS"Do you know your ABC's? Cause I wanna give you the 4th letter of the alphabet."
p1146
aS"Are you an archaeologist? Because I've got a bone for you to examine."
p1147
aS"I'll give you a nickel if you tickle my pickle."
p1148
aS"You are so selfish! You're going to have that body the rest of your life and I just want it for one night."
p1149
aS'Just remember: To you, I am a virgin.'
p1150
aS"What's the speed limit of sex? [what?] 68. Because at 69 YOU have to turn around!"
p1151
aS"I'm an astronaut and my next mission is to explore Uranus."
p1152
aS"I'm like a Rubik's Cube, the more you play with me the harder I get!"
p1153
aS"What's the difference between a Ferrari and an erection? I don't have a Ferrari."
p1154
aS'Hi, do you want to have my children? [No] OK, can we just practice then?'
p1155
aS"I'm afraid of the dark... Will you sleep with me tonight?"
p1156
aS"I love my bed but I'd rather be in yours."
p1157
aS"Baby, I'm like a firefighter, I find 'em hot and leave 'em wet!"
p1158
aS"I spent over a grand on Viagra today, only to come here and see you and find out that I don't need it after all."
p1159
aS'Brrr! My hands are cold. Can I warm them in your heaving breasts?'
p1160
aS"I'm hung like a tic tac. Wanna freshen your breath?"
p1161
aS'Do you come here often or wait till you get home?'
p1162
aS'Do you have a mirror in your pocket? (Why?) Because I can see myself in your pants.'
p1163
aS'Do you wash your panties with Windex? Because I can really see myself in them.'
p1164
aS'Do you need a stud in your life? Cause I got the STD and all I need is U.'
p1165
aS'Why pay for a bra, when I would gladly hold your boobs up all day for free?'
p1166
aS'You smell like trash. May I take you out?'
p1167
aS"If I had AIDS, would you have sex with me? [No] Well, I don't, so let's go."
p1168
aS'Excuse me, but do you give head to strangers? [No] Well then, allow me to introduce myself.'
p1169
aS'I wanna floss with your pubic hair.'
p1170
aS'I want to melt in your mouth, not in your hand.'
p1171
aS'If your right leg was Christmas and your left leg was Easter, would you let me come for dinner between the holidays?'
p1172
aS'That dress looks great on you...as a matter of fact, so would I.'
p1173
aS"So, come back to my place, and if you don't like it I swear I'll give you a full refund."
p1174
aS"Miss, If you've lost your virginity, can I have the box it came in?"
p1175
aS"Let's have a party and invite your pants to come on down."
p1176
aS'Do you have any Italian in you? Would you like some?'
p1177
aS"Hey baby, let's play house, you can be the door and I'll slam you all night long!"
p1178
aS'Hi, my name is "Milk." I\'ll do your body good.'
p1179
aS'I think I could fall madly in bed with you.'
p1180
aS"Let's play carpenter. First we'll get hammered, then I'll nail you."
p1181
aS"We're like hot chocolate and marshmallows... You're hot and I wanna be on top of you."
p1182
aS"Wanna go on an 'ate' with me? I'll give you the 'D' later."
p1183
aS"You're so hot, even my pants are falling for you!"
p1184
aS'Are you from the Philippines? Because I wanna phil you with my penis.'
p1185
aS"Do you like Ramen Noodles? Cuz I'll be Rammin' my noodle in you later."
p1186
aS'Are you spaghetti cause I want you to meat my balls.'
p1187
aS'Do you like whales? Cause we can go hump back at my place.'
p1188
aS'Baby I last longer than a white crayon.'
p1189
aS'Do you like to draw? Cause I put the D in Raw.'
p1190
aS"We should play strip poker. You can strip, and I'll poke you."
p1191
aS'You remind me of the movie "Scarface" cause I want you to say hello to my little friend.'
p1192
aS'Do you like Adele? Cause I can tell you wanna be rolling in the D.'
p1193
aS'Girl, you should sell hotdogs, because you already know how to make a wiener stand.'
p1194
aS'I had a wet dream about you last night. Would you like to make it a reality?'
p1195
aS'"Do you like cherries?" [No.] "Ok, can I have yours?"'
p1196
aS'Do you know what winks and screws like a tiger? [No] Wink.'
p1197
aS"Hey baby, wanna play lion? You go kneel down right there and I'll throw you my meat."
p1198
aS'[Excuse me, do you have the time?] "Yes, do you have the energy?"'
p1199
aS'At the office copy machine "Reproducing eh?" "Can I help?"'
p1200
aS'Do you have a phone in your back pocket? Because your booty is calling me.'
p1201
aS'(Use index finger to call someone over then say) I made you come with one finger, imagine what I could do with my whole hand.'
p1202
aS'Hi, wanna f**k? [No] Mind lying down while I do?'
p1203
aS'I know a great way to burn off the calories in that pastry you just ate.'
p1204
aS'I miss my teddy bear. Would you sleep with me?'
p1205
aS'Is your name daisy? Because I have a sudden urge to plant you right here!'
p1206
aS'Does your ass have Allstate insurance? [No, why?] Well do you want it to be in good hands?'
p1207
aS'Let me insert my plug into your socket and we can generate some electricity.'
p1208
aS'You have been very naughty. Go to my room!'
p1209
aS"Do you like Wendy's? Cause you're gonna love Wendy's nuts slap yo face!"
p1210
aS"Don't ever change. Just get naked."
p1211
aS'Are those jeans Guess? Cause guess who wants to be inside them...'
p1212
aS'Do you like bacon? Wanna strip?'
p1213
aS'Hey there, I just took some Cialis and I have 18 hours left.'
p1214
aS'I must expel some seminal fluid. May I use your body?'
p1215
aS'Hold out two fingers and say: "Why should a woman masturbate with these two fingers?" (I don\'t know.) "\'Cause they\'re mine sweetheart."'
p1216
aS'I wanna put my thingy into your thingy.'
p1217
aS'Excuse me, I am about to go masturbate and needed a name to go with the face.'
p1218
aS'I would absolutely love to swap bodily fluids with you.'
p1219
aS"Let's go to my place and do the things I'll tell everyone we did anyway."
p1220
aS"I'm gonna have sex with you tonight so, you might as well be there."
p1221
aS"I'm not Asian but I'll still eat your cat."
p1222
aS"Are you the lottery lady on TV, because I'm picturing you holding up my balls."
p1223
aS"Damn girl I'd love to kiss those beautiful, luscious lips. And the ones on your face."
p1224
aS'I have a job for you, but it blows!'
p1225
aS"Do you have a shovel? Cause I'm diggin' that ass!"
p1226
aS'The things I would do if I got a few roofies in you.'
p1227
aS'Damn, are you my new boss, because you just gave me a raise.'
p1228
aS"You're so hot you could make a deceased man's dick rise from the dead!"
p1229
aS"As long as I have a face, you'll have a place to sit."
p1230
aS'You must be yogurt because I want to spoon you.'
p1231
aS"Do you like tapes and CD's? Cause I'm gonna tape this dick to your forehead so you CD's nuts."
p1232
aS"Do you work at the wood store? Cause I could've sworn you gave me wood before."
p1233
aS"Do you like soda? Because I'd mount-and-do you. (Mountain Dew)"
p1234
aS'Is it hot in here, or are your boobs just huge.'
p1235
aS"I'm peanut butter, you're jelly, let's have sex."
p1236
aS"If it's true that we are what we eat, then I could be you by tomorrow morning."
p1237
aS"Remember my name, because you'll be screaming it later!"
p1238
aS'Nice shoes, wanna f**k?'
p1239
aS'Nice socks. Can I try them on after we have sex?'
p1240
aS'Nice tits. Mind if I squeeze them?'
p1241
aS"Oh, you're a bird watcher. [Pull out your dong] Well, would you take this for a swallow?"
p1242
aS'Are you an elevator? Cause I wanna go down on you.'
p1243
aS"Is your name Osteoporosis? Because you're giving me a serious bone condition"
p1244
aS'Your bone structure is giving my bone structure.'
p1245
aS"Is your name winter? Because you'll be coming soon."
p1246
aS"Do you like jalape\xc3\xb1os? Cause in a minute I'll be jalape\xc3\xb1o pussy."
p1247
aS"Are you a shark? Cause I've got some swimmers for you to swallow."
p1248
aS"Are you jewish? Cause the way you're looking at me, I'm beginning to think Jewish this dick was in your mouth."
p1249
aS"Do you work for Papa Johns? Cause you're a fine pizza ass."
p1250
aS'Girl are you a witch? Cause you know how to make something stand without even touching it'
p1251
aS"Are you from China? Cause I'm China get in your pants."
p1252
aS"Do you like Pizza Hut? Cause I'll stuff your crust."
p1253
aS"Since we've been told to reduce waste these days, what you say we use these condoms in my pocket before they expire."
p1254
aS'[Take an ice cube to the bar, smash it, and say] "Now that I\'ve broken the ice, will you sleep with me?"'
p1255
aS'The only reason I would kick you out of bed would be to f**k you on the floor.'
p1256
aS'The word of the day is "legs." Let\'s go back to my place and spread the word.'
p1257
aS"We're going to dance to one song, then go back to my apartment and f**k."
p1258
aS'What can I do to make you sleep with me?'
p1259
aS"Let's go back to my room and do some math: Add a bed, subtract our clothes, divide your legs, and multiply."
p1260
aS'I wish you were a screen door, so I could slam you all day long!'
p1261
aS'Do you like yoga? Cause Yoganna love this dick.'
p1262
aS"Your place or mine? Tell you what? I'll flip a coin. Head at my place, tail at yours."
p1263
aS"I'd like to get between your legs and eat my way straight to your heart..."
p1264
aS"Hey! Wanna play war? I'll lay on the ground and you blow the f**k outta me!"
p1265
aS'If we were both squirrels, would you let me bust a nut in your hole?'
p1266
aS"My dick's been feeling a little dead lately. Wanna give it some mouth-to-mouth?"
p1267
aS'If I told you I had a 2 inch dick would you f**k me? [No] Good, because mine is 8 inches.'
p1268
aS'Do you like apples? [Yes/No] How about I take you home and f**k the sh*t out of you. How do like them apples?'
p1269
aS"Do you like jewels? [Yes/No] well, suck my dick, it's a gem."
p1270
aS'They say sex is a killer... Do you want to die happy?'
p1271
aS"First, I'd like to kiss you passionately on the lips, then, I'll move up to your belly button."
p1272
aS'Your lips are kinda wrinkled. Mind if I press them?'
p1273
aS'I have a big headache. I hear the best cure for headaches is sex. What say we go upstairs and work out a remedy.'
p1274
aS"So, Is it safe to say I'm gonna score?"
p1275
aS'I just checked my schedule and I can have you pregnant by Christmas.'
p1276
aS"I'm like Domino's Pizza. If I don't come in 30 minutes, the next one is free."
p1277
aS'Do you like my belt buckle? (any response is okay ) It would look better against your forehead!'
p1278
aS'Do you wanna come to the Marines, or would your rather have a Marine come into you?'
p1279
aS"Are you gay? [No] Wow, me neither, let's have sex."
p1280
aS'If I washed my dick, would you suck it? [No] Oh, so you like to suck dirty dicks.'
p1281
aS'Nice f**king weather. Want to?'
p1282
aS'That outfit would look great in a crumpled heap next to my bed.'
p1283
aS"We're out of bleach. Do you want to go in the janitor's closet and make out?"
p1284
aS'There are 206 bones in the human body. How would you like one more?'
p1285
aS'Those are nice jeans, do you think I could get in them?'
p1286
aS'Wanna play carnival? You sit on my face and I guess how much you weigh.'
p1287
aS'What do you like for breakfast?'
p1288
aS'Which is easier? You getting into those tight pants or getting you out of them?'
p1289
aS"Why don't you come over here, sit on my lap and we'll talk about the first thing that pops up?"
p1290
aS"Why don't you surprise your roommate and not come home tonight?"
p1291
aS'You have some nice jewelry. It would look great on my nightstand.'
p1292
aS'Are those lumberjack pants your wearing? They are giving me a wood.'
p1293
aS"You remind me of a championship bass, I don't know whether to mount you or eat you."
p1294
aS"Hey baby, as long as I have a face, you'll have a place to sit."
p1295
aS"Hey baby there's a party in my pants and you are invited!"
p1296
aS'Can I walk through your bushes and climb your mountains?'
p1297
aS"Hey I'm looking for treasure, Can I look around your chest?"
p1298
aS"I'm a freelance gynecologist. How long has it been since your last checkup?"
p1299
aS'Do you take Visa?'
p1300
aS'Excuse me, I just shit in my pants. Can I get in yours?'
p1301
aS'You are the reason that god invented boners.'
p1302
aS'With great penis, comes great responsibility.'
p1303
aS'If I flip a coin, what are my chances of getting head?'
p1304
aS"If you're feeling down, I can feel you up."
p1305
aS'There are so many things you can do with the human mouth... why waste it on talking?'
p1306
aS'How do you like your eggs? Poached, scrambled or fertilized?'
p1307
aS'You smell... We should go take a shower together.'
p1308
aS'Would you like a hotdog to go with those buns?'
p1309
aS"You're like my own personal brand of heroin."
p1310
aS'This may seem corny, but you make me really horny.'
p1311
aS"I'm a burglar and I'm gonna smash your backdoor in."
p1312
aS"Do you wanna do something that rhymes with 'Truck'?"
p1313
aS'I have a rare disease that will kill me unless I have sex within the next 30 minutes.'
p1314
aS"Don't let me die! I bet my tongue can beat up your tongue."
p1315
aS"Yeah, it's big and if you pet it, it spits"
p1316
aS'Let us let only latex stand between our love.'
p1317
aS"Do you wanna see why my nickname is 'tri-pod'?"
p1318
aS"There are plenty of fish in the sea, but you're the only one I'd like to catch and mount back at my place."
p1319
aS'I heard your ankles were having a party... want to invite your pants down?'
p1320
aS'Are you a virgin? [No] Prove it!'
p1321
aS'You bring a whole new meaning to the word, "edible."'
p1322
aS"I don't know what you think of me, but I hope it's X-rated."
p1323
aS"Want to play lion tamer? You could get on all fours and I'll put my head in your mouth."
p1324
aS'If I was a watermelon, would you spit or swallow my seed?'
p1325
aS"Do you like chicken? Sorry, I haven't got any, how about a cock?"
p1326
aS'I think that we might be related. Let me check for the family birthmark on your chest.'
p1327
aS"Are you from Ireland? 'Cuz my dick's-a-Dublin! [Look down at your crotch]"
p1328
aS"It's not just going to suck itself."
p1329
aS"I'm a writer, you're a writer, how about we get naked together and put some poetry in motion?"
p1330
aS'Are you from Africa? Cause I wanna know Kenya suck this dick?'
p1331
aS'[Hold up a screw] Wanna screw?'
p1332
aS'Do you want to come over to my place and feed your beaver some wood?'
p1333
aS"[What are you doing?] I'm taking off my shoes. [Why?] So I can take off my pants."
p1334
aS"How about you be my story and I'll be your climax!"
p1335
aS'"I have this magic watch that can actually talk to me. Seriously, it\'s saying something right now. It says that you\'re not wearing any underwear, is that true?." [No.] "Oh wait, my watch is an hour fast!'
p1336
aS"Is your name Dora? Cause I'll let you explore this dick."
p1337
aS'I like your hair, your eyes, your smile... I like every bone in your body... Especially mine!'
p1338
aS'Do you sleep on your stomach? [No] Can I?'
p1339
aS'Lets play "Titanic." When I say "Iceburg!" you do down.'
p1340
aS'Do you believe guys think with their dick? (Yeah.) Well, in that case, will you blow my mind?'
p1341
aS'Smile. It is the second best thing you can do with your lips.'
p1342
aS"Don't you think most people who use pick-up lines are dipsticks? (Yes.) In that case, mind if I check your oil level?"
p1343
aS'Your shirt has to go, but you can stay.'
p1344
aS'Would you like to actively engage in mock procreation?'
p1345
aS"I'm easy. Are you?"
p1346
aS'Would you like to try an Australian kiss? It is just like a French kiss, but down under.'
p1347
aS'Could you do me a favor? Could you get on your knees and smile like a donut?'
p1348
aS'This is a condom. If we put it on, we can have sex.'
p1349
aS'I WANT SEX! Sorry, the doctor said that would help...'
p1350
aS'Do you believe in free love? [No] Then how much do you cost?'
p1351
aS"Hey baby, I'll f**k you so well, the NEIGHBORS will be having a cigarette when we're done."
p1352
aS"Want to make a porno? We don't have to tape it."
p1353
aS"Let's not mess with nature. We are here to make babies. So, let's get to it."
p1354
aS"Gee, that's a nice set of legs, what time do they open?"
p1355
aS"I don't know you, and you don't know me, but who's to say it's wrong if we sleep together?"
p1356
aS"Is it that cold out or are you just smuggling tic-tac's in your bra?"
p1357
aS"I just popped a Viagra. So, we've got about 30 minutes to get back to your place."
p1358
aS"I think that pick-up lines are for people with to much time on their hands. Let's just f**k."
p1359
aS'You have a beautiful voice. I bet it would sound even better muffled by my penis.'
p1360
aS'If you can dance, you have my hand, but if you can sing, you have my heart.'
p1361
aS"I hope to God you can't sing because I just wanna f**k you."
p1362
aS"That's a nice shirt. Can I talk you out of it?"
p1363
aS"Hi, I'm gay. Do you think you can convert me?"
p1364
aS"I'm the finger down your spine when all the lights go out."
p1365
aS"If I'm a pain in your ass... We can just add more lubricants."
p1366
aS"Life is short. Let's f**k and see if there is anything after that. Let me eat you for an hour. If you don't want to have sex after that, we won't."
p1367
aS'All those curves, and me with no brakes.'
p1368
aS"[Give the person a bottle of wine or tequila] Drink this, and then call me when you're ready."
p1369
aS'Hi, will you help me find my lost puppy? I think he went into this cheap motel room across the street.'
p1370
aS"I'm trying to determine after years of therapy and lots of testing, whether or not I'm allergic to sex."
p1371
aS'[Walk into her chest] "If they weren\'t sooo large, it wouldn\'t have happened!"'
p1372
aS"If the sun were to stop shining, I'd be your source of vitamin D."
p1373
aS'How much will $20 get me?'
p1374
aS'Roses are red, violets are blue, I suck at pick up lines... nice tits.'
p1375
aS'Want to spend the night at my house tonight? The couch may not pull out, but I do.'
p1376
aS"So, come back to my place, and if you don't like it I swear I'll give you a full refund."
p1377
aS'What are you doing tonight? Besides me, of course?'
p1378
aS"Will you be my girlfrien? I left out the 'd' cause you'll get that later!"
p1379
aS'My name is Skittles... wanna taste my rainbow?'
p1380
aS"Are those pants on sale? Cause they're 100% off at my place!"
p1381
aS"I'm with the TSA and I need to perform a full body cavity search, for security reasons."
p1382
aS'Can I be the wiener in your hotdog?'
p1383
aS"I only have 12 hours to live... please don't let me die a virgin."
p1384
aS"I'm bigger and better than the Titantic - only 200 women went down on that vessel!"
p1385
aS'What is a nice girl like you doing in a dirty mind like mine?'
p1386
aS'What has 132 teeth and holds back the Incredible Hulk? My zipper.'
p1387
aS'With my IQ and your body, we could make a race of superchildren and conquer the earth!'
p1388
aS'You remind me of a crop, because I wanna plow you.'
p1389
aS'On a scale from 1 to "the human centipede", how close am I to that ass?'
p1390
aS'Do you like long cocks on the beach?'
p1391
aS"Do you have an Asian passport? Because I'm China get into your Japantees"
p1392
aS"I'd crawl over a thousand miles of broken glass just to suck the dick of the last guy you slept with."
p1393
aS"Hey baby, I've got a back seat with your name on it."
p1394
aS'I wanna paint you green and spank you like a disobedient avocado.'
p1395
aS'I have the entire dictionary written on my dick.'
p1396
aS'Want me to put some words in your mouth??'
p1397
aS'The FBI wants to steal my penis. Can I hide it inside you?'
p1398
aS'You should join the circus so you can learn to juggle my balls all day.'
p1399
aS'I wanna go inside your wine cabinet and pull myself out a stiff one.'
p1400
aS'Are you a candle? Because I want to blow you.'
p1401
aS"I'm no good at pick up lines, but I can pick you up and you will feel my line."
p1402
aS'You wanna go out this weekend? [Sorry, I have a boyfriend] I have a math test tomorrow [What?] Oh, I thought we were talking about things we could both cheat on!'
p1403
aS'Are those space pants? Cuz your ass is out of this world'
p1404
a.